
byggernV5.elf:     file format elf32-avr

Sections:
Idx Name          Size      VMA       LMA       File off  Algn
  0 .data         00000124  00800100  00001874  00001908  2**0
                  CONTENTS, ALLOC, LOAD, DATA
  1 .text         00001874  00000000  00000000  00000094  2**1
                  CONTENTS, ALLOC, LOAD, READONLY, CODE
  2 .bss          0000000a  00800224  00800224  00001a2c  2**0
                  ALLOC
  3 .comment      0000005c  00000000  00000000  00001a2c  2**0
                  CONTENTS, READONLY
  4 .note.gnu.avr.deviceinfo 0000003c  00000000  00000000  00001a88  2**2
                  CONTENTS, READONLY
  5 .debug_aranges 00000270  00000000  00000000  00001ac4  2**0
                  CONTENTS, READONLY, DEBUGGING
  6 .debug_info   00002df4  00000000  00000000  00001d34  2**0
                  CONTENTS, READONLY, DEBUGGING
  7 .debug_abbrev 00000f04  00000000  00000000  00004b28  2**0
                  CONTENTS, READONLY, DEBUGGING
  8 .debug_line   00001285  00000000  00000000  00005a2c  2**0
                  CONTENTS, READONLY, DEBUGGING
  9 .debug_frame  00000648  00000000  00000000  00006cb4  2**2
                  CONTENTS, READONLY, DEBUGGING
 10 .debug_str    00000959  00000000  00000000  000072fc  2**0
                  CONTENTS, READONLY, DEBUGGING
 11 .debug_loc    0000163c  00000000  00000000  00007c55  2**0
                  CONTENTS, READONLY, DEBUGGING
 12 .debug_ranges 000001f8  00000000  00000000  00009291  2**0
                  CONTENTS, READONLY, DEBUGGING

Disassembly of section .text:

00000000 <__vectors>:
       0:	0c 94 b4 01 	jmp	0x368	; 0x368 <__ctors_end>
       4:	0c 94 d1 01 	jmp	0x3a2	; 0x3a2 <__bad_interrupt>
       8:	0c 94 d1 01 	jmp	0x3a2	; 0x3a2 <__bad_interrupt>
       c:	0c 94 d1 01 	jmp	0x3a2	; 0x3a2 <__bad_interrupt>
      10:	0c 94 d1 01 	jmp	0x3a2	; 0x3a2 <__bad_interrupt>
      14:	0c 94 d1 01 	jmp	0x3a2	; 0x3a2 <__bad_interrupt>
      18:	0c 94 d1 01 	jmp	0x3a2	; 0x3a2 <__bad_interrupt>
      1c:	0c 94 d1 01 	jmp	0x3a2	; 0x3a2 <__bad_interrupt>
      20:	0c 94 d1 01 	jmp	0x3a2	; 0x3a2 <__bad_interrupt>
      24:	0c 94 d1 01 	jmp	0x3a2	; 0x3a2 <__bad_interrupt>
      28:	0c 94 d1 01 	jmp	0x3a2	; 0x3a2 <__bad_interrupt>
      2c:	0c 94 d1 01 	jmp	0x3a2	; 0x3a2 <__bad_interrupt>
      30:	0c 94 d1 01 	jmp	0x3a2	; 0x3a2 <__bad_interrupt>
      34:	0c 94 d1 01 	jmp	0x3a2	; 0x3a2 <__bad_interrupt>
      38:	0c 94 d1 01 	jmp	0x3a2	; 0x3a2 <__bad_interrupt>
      3c:	0c 94 d1 01 	jmp	0x3a2	; 0x3a2 <__bad_interrupt>
      40:	0c 94 d1 01 	jmp	0x3a2	; 0x3a2 <__bad_interrupt>
      44:	0c 94 d1 01 	jmp	0x3a2	; 0x3a2 <__bad_interrupt>
      48:	0c 94 d1 01 	jmp	0x3a2	; 0x3a2 <__bad_interrupt>
      4c:	0c 94 d1 01 	jmp	0x3a2	; 0x3a2 <__bad_interrupt>
      50:	0c 94 d1 01 	jmp	0x3a2	; 0x3a2 <__bad_interrupt>
      54:	0c 94 d1 01 	jmp	0x3a2	; 0x3a2 <__bad_interrupt>
      58:	0c 94 d1 01 	jmp	0x3a2	; 0x3a2 <__bad_interrupt>
      5c:	0c 94 d1 01 	jmp	0x3a2	; 0x3a2 <__bad_interrupt>
      60:	0c 94 d1 01 	jmp	0x3a2	; 0x3a2 <__bad_interrupt>
      64:	0c 94 d1 01 	jmp	0x3a2	; 0x3a2 <__bad_interrupt>
      68:	0c 94 d1 01 	jmp	0x3a2	; 0x3a2 <__bad_interrupt>
      6c:	0c 94 d1 01 	jmp	0x3a2	; 0x3a2 <__bad_interrupt>

00000070 <__trampolines_end>:
	...
      78:	00 06       	cpc	r0, r16
      7a:	5f 5f       	subi	r21, 0xFF	; 255
      7c:	06 00       	.word	0x0006	; ????
      7e:	00 00       	nop
      80:	00 07       	cpc	r16, r16
      82:	07 00       	.word	0x0007	; ????
      84:	07 07       	cpc	r16, r23
      86:	00 00       	nop
      88:	14 7f       	andi	r17, 0xF4	; 244
      8a:	7f 14       	cp	r7, r15
      8c:	7f 7f       	andi	r23, 0xFF	; 255
      8e:	14 00       	.word	0x0014	; ????
      90:	24 2e       	mov	r2, r20
      92:	6b 6b       	ori	r22, 0xBB	; 187
      94:	3a 12       	cpse	r3, r26
      96:	00 00       	nop
      98:	46 66       	ori	r20, 0x66	; 102
      9a:	30 18       	sub	r3, r0
      9c:	0c 66       	ori	r16, 0x6C	; 108
      9e:	62 00       	.word	0x0062	; ????
      a0:	30 7a       	andi	r19, 0xA0	; 160
      a2:	4f 5d       	subi	r20, 0xDF	; 223
      a4:	37 7a       	andi	r19, 0xA7	; 167
      a6:	48 00       	.word	0x0048	; ????
      a8:	04 07       	cpc	r16, r20
      aa:	03 00       	.word	0x0003	; ????
      ac:	00 00       	nop
      ae:	00 00       	nop
      b0:	00 1c       	adc	r0, r0
      b2:	3e 63       	ori	r19, 0x3E	; 62
      b4:	41 00       	.word	0x0041	; ????
      b6:	00 00       	nop
      b8:	00 41       	sbci	r16, 0x10	; 16
      ba:	63 3e       	cpi	r22, 0xE3	; 227
      bc:	1c 00       	.word	0x001c	; ????
      be:	00 00       	nop
      c0:	08 2a       	or	r0, r24
      c2:	3e 1c       	adc	r3, r14
      c4:	1c 3e       	cpi	r17, 0xEC	; 236
      c6:	2a 08       	sbc	r2, r10
      c8:	08 08       	sbc	r0, r8
      ca:	3e 3e       	cpi	r19, 0xEE	; 238
      cc:	08 08       	sbc	r0, r8
      ce:	00 00       	nop
      d0:	00 a0       	ldd	r0, Z+32	; 0x20
      d2:	e0 60       	ori	r30, 0x00	; 0
      d4:	00 00       	nop
      d6:	00 00       	nop
      d8:	08 08       	sbc	r0, r8
      da:	08 08       	sbc	r0, r8
      dc:	08 08       	sbc	r0, r8
      de:	00 00       	nop
      e0:	00 00       	nop
      e2:	60 60       	ori	r22, 0x00	; 0
      e4:	00 00       	nop
      e6:	00 00       	nop
      e8:	60 30       	cpi	r22, 0x00	; 0
      ea:	18 0c       	add	r1, r8
      ec:	06 03       	mulsu	r16, r22
      ee:	01 00       	.word	0x0001	; ????
      f0:	3e 7f       	andi	r19, 0xFE	; 254
      f2:	59 4d       	sbci	r21, 0xD9	; 217
      f4:	7f 3e       	cpi	r23, 0xEF	; 239
      f6:	00 00       	nop
      f8:	42 42       	sbci	r20, 0x22	; 34
      fa:	7f 7f       	andi	r23, 0xFF	; 255
      fc:	40 40       	sbci	r20, 0x00	; 0
      fe:	00 00       	nop
     100:	62 73       	andi	r22, 0x32	; 50
     102:	59 49       	sbci	r21, 0x99	; 153
     104:	6f 66       	ori	r22, 0x6F	; 111
     106:	00 00       	nop
     108:	22 63       	ori	r18, 0x32	; 50
     10a:	49 49       	sbci	r20, 0x99	; 153
     10c:	7f 36       	cpi	r23, 0x6F	; 111
     10e:	00 00       	nop
     110:	18 1c       	adc	r1, r8
     112:	16 13       	cpse	r17, r22
     114:	7f 7f       	andi	r23, 0xFF	; 255
     116:	10 00       	.word	0x0010	; ????
     118:	27 67       	ori	r18, 0x77	; 119
     11a:	45 45       	sbci	r20, 0x55	; 85
     11c:	7d 39       	cpi	r23, 0x9D	; 157
     11e:	00 00       	nop
     120:	3c 7e       	andi	r19, 0xEC	; 236
     122:	4b 49       	sbci	r20, 0x9B	; 155
     124:	79 30       	cpi	r23, 0x09	; 9
     126:	00 00       	nop
     128:	03 63       	ori	r16, 0x33	; 51
     12a:	71 19       	sub	r23, r1
     12c:	0f 07       	cpc	r16, r31
     12e:	00 00       	nop
     130:	36 7f       	andi	r19, 0xF6	; 246
     132:	49 49       	sbci	r20, 0x99	; 153
     134:	7f 36       	cpi	r23, 0x6F	; 111
     136:	00 00       	nop
     138:	06 4f       	sbci	r16, 0xF6	; 246
     13a:	49 69       	ori	r20, 0x99	; 153
     13c:	3f 1e       	adc	r3, r31
     13e:	00 00       	nop
     140:	00 00       	nop
     142:	6c 6c       	ori	r22, 0xCC	; 204
     144:	00 00       	nop
     146:	00 00       	nop
     148:	00 a0       	ldd	r0, Z+32	; 0x20
     14a:	ec 6c       	ori	r30, 0xCC	; 204
     14c:	00 00       	nop
     14e:	00 00       	nop
     150:	08 1c       	adc	r0, r8
     152:	36 63       	ori	r19, 0x36	; 54
     154:	41 00       	.word	0x0041	; ????
     156:	00 00       	nop
     158:	14 14       	cp	r1, r4
     15a:	14 14       	cp	r1, r4
     15c:	14 14       	cp	r1, r4
     15e:	00 00       	nop
     160:	00 41       	sbci	r16, 0x10	; 16
     162:	63 36       	cpi	r22, 0x63	; 99
     164:	1c 08       	sbc	r1, r12
     166:	00 00       	nop
     168:	02 03       	mulsu	r16, r18
     16a:	51 59       	subi	r21, 0x91	; 145
     16c:	0f 06       	cpc	r0, r31
     16e:	00 00       	nop
     170:	3e 7f       	andi	r19, 0xFE	; 254
     172:	41 5d       	subi	r20, 0xD1	; 209
     174:	5d 1f       	adc	r21, r29
     176:	1e 00       	.word	0x001e	; ????
     178:	7c 7e       	andi	r23, 0xEC	; 236
     17a:	13 13       	cpse	r17, r19
     17c:	7e 7c       	andi	r23, 0xCE	; 206
     17e:	00 00       	nop
     180:	41 7f       	andi	r20, 0xF1	; 241
     182:	7f 49       	sbci	r23, 0x9F	; 159
     184:	49 7f       	andi	r20, 0xF9	; 249
     186:	36 00       	.word	0x0036	; ????
     188:	1c 3e       	cpi	r17, 0xEC	; 236
     18a:	63 41       	sbci	r22, 0x13	; 19
     18c:	41 63       	ori	r20, 0x31	; 49
     18e:	22 00       	.word	0x0022	; ????
     190:	41 7f       	andi	r20, 0xF1	; 241
     192:	7f 41       	sbci	r23, 0x1F	; 31
     194:	63 7f       	andi	r22, 0xF3	; 243
     196:	1c 00       	.word	0x001c	; ????
     198:	41 7f       	andi	r20, 0xF1	; 241
     19a:	7f 49       	sbci	r23, 0x9F	; 159
     19c:	5d 41       	sbci	r21, 0x1D	; 29
     19e:	63 00       	.word	0x0063	; ????
     1a0:	41 7f       	andi	r20, 0xF1	; 241
     1a2:	7f 49       	sbci	r23, 0x9F	; 159
     1a4:	1d 01       	movw	r2, r26
     1a6:	03 00       	.word	0x0003	; ????
     1a8:	1c 3e       	cpi	r17, 0xEC	; 236
     1aa:	63 41       	sbci	r22, 0x13	; 19
     1ac:	51 73       	andi	r21, 0x31	; 49
     1ae:	72 00       	.word	0x0072	; ????
     1b0:	7f 7f       	andi	r23, 0xFF	; 255
     1b2:	08 08       	sbc	r0, r8
     1b4:	7f 7f       	andi	r23, 0xFF	; 255
     1b6:	00 00       	nop
     1b8:	00 41       	sbci	r16, 0x10	; 16
     1ba:	7f 7f       	andi	r23, 0xFF	; 255
     1bc:	41 00       	.word	0x0041	; ????
     1be:	00 00       	nop
     1c0:	30 70       	andi	r19, 0x00	; 0
     1c2:	40 41       	sbci	r20, 0x10	; 16
     1c4:	7f 3f       	cpi	r23, 0xFF	; 255
     1c6:	01 00       	.word	0x0001	; ????
     1c8:	41 7f       	andi	r20, 0xF1	; 241
     1ca:	7f 08       	sbc	r7, r15
     1cc:	1c 77       	andi	r17, 0x7C	; 124
     1ce:	63 00       	.word	0x0063	; ????
     1d0:	41 7f       	andi	r20, 0xF1	; 241
     1d2:	7f 41       	sbci	r23, 0x1F	; 31
     1d4:	40 60       	ori	r20, 0x00	; 0
     1d6:	70 00       	.word	0x0070	; ????
     1d8:	7f 7f       	andi	r23, 0xFF	; 255
     1da:	06 0c       	add	r0, r6
     1dc:	06 7f       	andi	r16, 0xF6	; 246
     1de:	7f 00       	.word	0x007f	; ????
     1e0:	7f 7f       	andi	r23, 0xFF	; 255
     1e2:	06 0c       	add	r0, r6
     1e4:	18 7f       	andi	r17, 0xF8	; 248
     1e6:	7f 00       	.word	0x007f	; ????
     1e8:	1c 3e       	cpi	r17, 0xEC	; 236
     1ea:	63 41       	sbci	r22, 0x13	; 19
     1ec:	63 3e       	cpi	r22, 0xE3	; 227
     1ee:	1c 00       	.word	0x001c	; ????
     1f0:	41 7f       	andi	r20, 0xF1	; 241
     1f2:	7f 49       	sbci	r23, 0x9F	; 159
     1f4:	09 0f       	add	r16, r25
     1f6:	06 00       	.word	0x0006	; ????
     1f8:	1e 3f       	cpi	r17, 0xFE	; 254
     1fa:	21 71       	andi	r18, 0x11	; 17
     1fc:	7f 5e       	subi	r23, 0xEF	; 239
     1fe:	00 00       	nop
     200:	41 7f       	andi	r20, 0xF1	; 241
     202:	7f 19       	sub	r23, r15
     204:	39 6f       	ori	r19, 0xF9	; 249
     206:	46 00       	.word	0x0046	; ????
     208:	26 67       	ori	r18, 0x76	; 118
     20a:	4d 59       	subi	r20, 0x9D	; 157
     20c:	7b 32       	cpi	r23, 0x2B	; 43
     20e:	00 00       	nop
     210:	03 41       	sbci	r16, 0x13	; 19
     212:	7f 7f       	andi	r23, 0xFF	; 255
     214:	41 03       	mulsu	r20, r17
     216:	00 00       	nop
     218:	7f 7f       	andi	r23, 0xFF	; 255
     21a:	40 40       	sbci	r20, 0x00	; 0
     21c:	7f 7f       	andi	r23, 0xFF	; 255
     21e:	00 00       	nop
     220:	1f 3f       	cpi	r17, 0xFF	; 255
     222:	60 60       	ori	r22, 0x00	; 0
     224:	3f 1f       	adc	r19, r31
     226:	00 00       	nop
     228:	7f 7f       	andi	r23, 0xFF	; 255
     22a:	30 18       	sub	r3, r0
     22c:	30 7f       	andi	r19, 0xF0	; 240
     22e:	7f 00       	.word	0x007f	; ????
     230:	63 77       	andi	r22, 0x73	; 115
     232:	1c 08       	sbc	r1, r12
     234:	1c 77       	andi	r17, 0x7C	; 124
     236:	63 00       	.word	0x0063	; ????
     238:	07 4f       	sbci	r16, 0xF7	; 247
     23a:	78 78       	andi	r23, 0x88	; 136
     23c:	4f 07       	cpc	r20, r31
     23e:	00 00       	nop
     240:	67 73       	andi	r22, 0x37	; 55
     242:	59 4d       	sbci	r21, 0xD9	; 217
     244:	47 63       	ori	r20, 0x37	; 55
     246:	71 00       	.word	0x0071	; ????
     248:	00 7f       	andi	r16, 0xF0	; 240
     24a:	7f 41       	sbci	r23, 0x1F	; 31
     24c:	41 00       	.word	0x0041	; ????
     24e:	00 00       	nop
     250:	01 03       	mulsu	r16, r17
     252:	06 0c       	add	r0, r6
     254:	18 30       	cpi	r17, 0x08	; 8
     256:	60 00       	.word	0x0060	; ????
     258:	00 41       	sbci	r16, 0x10	; 16
     25a:	41 7f       	andi	r20, 0xF1	; 241
     25c:	7f 00       	.word	0x007f	; ????
     25e:	00 00       	nop
     260:	08 0c       	add	r0, r8
     262:	06 03       	mulsu	r16, r22
     264:	06 0c       	add	r0, r6
     266:	08 00       	.word	0x0008	; ????
     268:	80 80       	ld	r8, Z
     26a:	80 80       	ld	r8, Z
     26c:	80 80       	ld	r8, Z
     26e:	80 80       	ld	r8, Z
     270:	00 00       	nop
     272:	03 07       	cpc	r16, r19
     274:	04 00       	.word	0x0004	; ????
     276:	00 00       	nop
     278:	20 74       	andi	r18, 0x40	; 64
     27a:	54 54       	subi	r21, 0x44	; 68
     27c:	3c 78       	andi	r19, 0x8C	; 140
     27e:	40 00       	.word	0x0040	; ????
     280:	41 3f       	cpi	r20, 0xF1	; 241
     282:	7f 44       	sbci	r23, 0x4F	; 79
     284:	44 7c       	andi	r20, 0xC4	; 196
     286:	38 00       	.word	0x0038	; ????
     288:	38 7c       	andi	r19, 0xC8	; 200
     28a:	44 44       	sbci	r20, 0x44	; 68
     28c:	6c 28       	or	r6, r12
     28e:	00 00       	nop
     290:	30 78       	andi	r19, 0x80	; 128
     292:	48 49       	sbci	r20, 0x98	; 152
     294:	3f 7f       	andi	r19, 0xFF	; 255
     296:	40 00       	.word	0x0040	; ????
     298:	38 7c       	andi	r19, 0xC8	; 200
     29a:	54 54       	subi	r21, 0x44	; 68
     29c:	5c 18       	sub	r5, r12
     29e:	00 00       	nop
     2a0:	48 7e       	andi	r20, 0xE8	; 232
     2a2:	7f 49       	sbci	r23, 0x9F	; 159
     2a4:	03 02       	muls	r16, r19
     2a6:	00 00       	nop
     2a8:	98 bc       	out	0x28, r9	; 40
     2aa:	a4 a4       	ldd	r10, Z+44	; 0x2c
     2ac:	f8 7c       	andi	r31, 0xC8	; 200
     2ae:	04 00       	.word	0x0004	; ????
     2b0:	41 7f       	andi	r20, 0xF1	; 241
     2b2:	7f 08       	sbc	r7, r15
     2b4:	04 7c       	andi	r16, 0xC4	; 196
     2b6:	78 00       	.word	0x0078	; ????
     2b8:	00 44       	sbci	r16, 0x40	; 64
     2ba:	7d 7d       	andi	r23, 0xDD	; 221
     2bc:	40 00       	.word	0x0040	; ????
     2be:	00 00       	nop
     2c0:	40 c4       	rjmp	.+2176   	; 0xb42 <add_submenu_from_list+0x38>
     2c2:	84 fd       	sbrc	r24, 4
     2c4:	7d 00       	.word	0x007d	; ????
     2c6:	00 00       	nop
     2c8:	41 7f       	andi	r20, 0xF1	; 241
     2ca:	7f 10       	cpse	r7, r15
     2cc:	38 6c       	ori	r19, 0xC8	; 200
     2ce:	44 00       	.word	0x0044	; ????
     2d0:	00 41       	sbci	r16, 0x10	; 16
     2d2:	7f 7f       	andi	r23, 0xFF	; 255
     2d4:	40 00       	.word	0x0040	; ????
     2d6:	00 00       	nop
     2d8:	7c 7c       	andi	r23, 0xCC	; 204
     2da:	0c 18       	sub	r0, r12
     2dc:	0c 7c       	andi	r16, 0xCC	; 204
     2de:	78 00       	.word	0x0078	; ????
     2e0:	7c 7c       	andi	r23, 0xCC	; 204
     2e2:	04 04       	cpc	r0, r4
     2e4:	7c 78       	andi	r23, 0x8C	; 140
     2e6:	00 00       	nop
     2e8:	38 7c       	andi	r19, 0xC8	; 200
     2ea:	44 44       	sbci	r20, 0x44	; 68
     2ec:	7c 38       	cpi	r23, 0x8C	; 140
     2ee:	00 00       	nop
     2f0:	84 fc       	sbrc	r8, 4
     2f2:	f8 a4       	ldd	r15, Y+40	; 0x28
     2f4:	24 3c       	cpi	r18, 0xC4	; 196
     2f6:	18 00       	.word	0x0018	; ????
     2f8:	18 3c       	cpi	r17, 0xC8	; 200
     2fa:	24 a4       	ldd	r2, Z+44	; 0x2c
     2fc:	f8 fc       	.word	0xfcf8	; ????
     2fe:	84 00       	.word	0x0084	; ????
     300:	44 7c       	andi	r20, 0xC4	; 196
     302:	78 44       	sbci	r23, 0x48	; 72
     304:	1c 18       	sub	r1, r12
     306:	00 00       	nop
     308:	48 5c       	subi	r20, 0xC8	; 200
     30a:	54 54       	subi	r21, 0x44	; 68
     30c:	74 24       	eor	r7, r4
     30e:	00 00       	nop
     310:	00 04       	cpc	r0, r0
     312:	3e 7f       	andi	r19, 0xFE	; 254
     314:	44 24       	eor	r4, r4
     316:	00 00       	nop
     318:	3c 7c       	andi	r19, 0xCC	; 204
     31a:	40 40       	sbci	r20, 0x00	; 0
     31c:	3c 7c       	andi	r19, 0xCC	; 204
     31e:	40 00       	.word	0x0040	; ????
     320:	1c 3c       	cpi	r17, 0xCC	; 204
     322:	60 60       	ori	r22, 0x00	; 0
     324:	3c 1c       	adc	r3, r12
     326:	00 00       	nop
     328:	3c 7c       	andi	r19, 0xCC	; 204
     32a:	60 30       	cpi	r22, 0x00	; 0
     32c:	60 7c       	andi	r22, 0xC0	; 192
     32e:	3c 00       	.word	0x003c	; ????
     330:	44 6c       	ori	r20, 0xC4	; 196
     332:	38 10       	cpse	r3, r8
     334:	38 6c       	ori	r19, 0xC8	; 200
     336:	44 00       	.word	0x0044	; ????
     338:	9c bc       	out	0x2c, r9	; 44
     33a:	a0 a0       	ldd	r10, Z+32	; 0x20
     33c:	fc 7c       	andi	r31, 0xCC	; 204
     33e:	00 00       	nop
     340:	4c 64       	ori	r20, 0x4C	; 76
     342:	74 5c       	subi	r23, 0xC4	; 196
     344:	4c 64       	ori	r20, 0x4C	; 76
     346:	00 00       	nop
     348:	08 08       	sbc	r0, r8
     34a:	3e 77       	andi	r19, 0x7E	; 126
     34c:	41 41       	sbci	r20, 0x11	; 17
     34e:	00 00       	nop
     350:	00 00       	nop
     352:	00 77       	andi	r16, 0x70	; 112
     354:	77 00       	.word	0x0077	; ????
     356:	00 00       	nop
     358:	41 41       	sbci	r20, 0x11	; 17
     35a:	77 3e       	cpi	r23, 0xE7	; 231
     35c:	08 08       	sbc	r0, r8
     35e:	00 00       	nop
     360:	02 03       	mulsu	r16, r18
     362:	01 03       	mulsu	r16, r17
     364:	02 03       	mulsu	r16, r18
     366:	01 00       	.word	0x0001	; ????

00000368 <__ctors_end>:
     368:	11 24       	eor	r1, r1
     36a:	1f be       	out	0x3f, r1	; 63
     36c:	cf ef       	ldi	r28, 0xFF	; 255
     36e:	d4 e0       	ldi	r29, 0x04	; 4
     370:	de bf       	out	0x3e, r29	; 62
     372:	cd bf       	out	0x3d, r28	; 61

00000374 <__do_copy_data>:
     374:	12 e0       	ldi	r17, 0x02	; 2
     376:	a0 e0       	ldi	r26, 0x00	; 0
     378:	b1 e0       	ldi	r27, 0x01	; 1
     37a:	e4 e7       	ldi	r30, 0x74	; 116
     37c:	f8 e1       	ldi	r31, 0x18	; 24
     37e:	02 c0       	rjmp	.+4      	; 0x384 <__do_copy_data+0x10>
     380:	05 90       	lpm	r0, Z+
     382:	0d 92       	st	X+, r0
     384:	a4 32       	cpi	r26, 0x24	; 36
     386:	b1 07       	cpc	r27, r17
     388:	d9 f7       	brne	.-10     	; 0x380 <__do_copy_data+0xc>

0000038a <__do_clear_bss>:
     38a:	22 e0       	ldi	r18, 0x02	; 2
     38c:	a4 e2       	ldi	r26, 0x24	; 36
     38e:	b2 e0       	ldi	r27, 0x02	; 2
     390:	01 c0       	rjmp	.+2      	; 0x394 <.do_clear_bss_start>

00000392 <.do_clear_bss_loop>:
     392:	1d 92       	st	X+, r1

00000394 <.do_clear_bss_start>:
     394:	ae 32       	cpi	r26, 0x2E	; 46
     396:	b2 07       	cpc	r27, r18
     398:	e1 f7       	brne	.-8      	; 0x392 <.do_clear_bss_loop>
     39a:	0e 94 3a 07 	call	0xe74	; 0xe74 <main>
     39e:	0c 94 38 0c 	jmp	0x1870	; 0x1870 <_exit>

000003a2 <__bad_interrupt>:
     3a2:	0c 94 00 00 	jmp	0	; 0x0 <__vectors>

000003a6 <can_cntrl_read>:
	SPI_SS_low();
	SPI_MasterTransmit(0xA0);
	int8_t result = SPI_MasterTransmit(0x0); //Output
	SPI_SS_high();
	return result;
}
     3a6:	cf 93       	push	r28
     3a8:	c8 2f       	mov	r28, r24
     3aa:	0e 94 c0 07 	call	0xf80	; 0xf80 <SPI_SS_low>
     3ae:	83 e0       	ldi	r24, 0x03	; 3
     3b0:	0e 94 cf 07 	call	0xf9e	; 0xf9e <SPI_MasterTransmit>
     3b4:	8c 2f       	mov	r24, r28
     3b6:	0e 94 cf 07 	call	0xf9e	; 0xf9e <SPI_MasterTransmit>
     3ba:	80 e0       	ldi	r24, 0x00	; 0
     3bc:	0e 94 cf 07 	call	0xf9e	; 0xf9e <SPI_MasterTransmit>
     3c0:	c8 2f       	mov	r28, r24
     3c2:	0e 94 c4 07 	call	0xf88	; 0xf88 <SPI_SS_high>
     3c6:	8c 2f       	mov	r24, r28
     3c8:	90 e0       	ldi	r25, 0x00	; 0
     3ca:	cf 91       	pop	r28
     3cc:	08 95       	ret

000003ce <can_cntrl_write>:
     3ce:	cf 93       	push	r28
     3d0:	df 93       	push	r29
     3d2:	d8 2f       	mov	r29, r24
     3d4:	c6 2f       	mov	r28, r22
     3d6:	0e 94 c0 07 	call	0xf80	; 0xf80 <SPI_SS_low>
     3da:	82 e0       	ldi	r24, 0x02	; 2
     3dc:	0e 94 cf 07 	call	0xf9e	; 0xf9e <SPI_MasterTransmit>
     3e0:	8d 2f       	mov	r24, r29
     3e2:	0e 94 cf 07 	call	0xf9e	; 0xf9e <SPI_MasterTransmit>
     3e6:	8c 2f       	mov	r24, r28
     3e8:	0e 94 cf 07 	call	0xf9e	; 0xf9e <SPI_MasterTransmit>
     3ec:	0e 94 c4 07 	call	0xf88	; 0xf88 <SPI_SS_high>
     3f0:	df 91       	pop	r29
     3f2:	cf 91       	pop	r28
     3f4:	08 95       	ret

000003f6 <can_cntrl_reset>:
     3f6:	0e 94 c0 07 	call	0xf80	; 0xf80 <SPI_SS_low>
     3fa:	80 ec       	ldi	r24, 0xC0	; 192
     3fc:	0e 94 cf 07 	call	0xf9e	; 0xf9e <SPI_MasterTransmit>
     400:	0e 94 c4 07 	call	0xf88	; 0xf88 <SPI_SS_high>
     404:	08 95       	ret

00000406 <can_cntrl_RTS>:
     406:	cf 93       	push	r28
     408:	c8 2f       	mov	r28, r24
     40a:	0e 94 c0 07 	call	0xf80	; 0xf80 <SPI_SS_low>
     40e:	8c 2f       	mov	r24, r28
     410:	81 68       	ori	r24, 0x81	; 129
     412:	0e 94 cf 07 	call	0xf9e	; 0xf9e <SPI_MasterTransmit>
     416:	0e 94 c4 07 	call	0xf88	; 0xf88 <SPI_SS_high>
     41a:	cf 91       	pop	r28
     41c:	08 95       	ret

0000041e <can_cntrl_config>:

void can_cntrl_config(void){
	can_cntrl_reset();
     41e:	0e 94 fb 01 	call	0x3f6	; 0x3f6 <can_cntrl_reset>
	#else
		//round up by default
		__ticks_dc = (uint32_t)(ceil(fabs(__tmp)));
	#endif

	__builtin_avr_delay_cycles(__ticks_dc);
     422:	89 ef       	ldi	r24, 0xF9	; 249
     424:	90 e0       	ldi	r25, 0x00	; 0
     426:	01 97       	sbiw	r24, 0x01	; 1
     428:	f1 f7       	brne	.-4      	; 0x426 <can_cntrl_config+0x8>
     42a:	00 c0       	rjmp	.+0      	; 0x42c <can_cntrl_config+0xe>
     42c:	00 00       	nop
	_delay_ms(1); //delay viktig 
	SPI_SS_low();
     42e:	0e 94 c0 07 	call	0xf80	; 0xf80 <SPI_SS_low>
	
	uint8_t cnf1_value = (2 << 6) | 3;
	uint8_t cnf2_value = (1 << 7) | (6 << 3) | 0 << 6;
	uint8_t cnf3_value = 5;
	
	can_cntrl_write(CNF1, cnf1_value);
     432:	63 e8       	ldi	r22, 0x83	; 131
     434:	8a e2       	ldi	r24, 0x2A	; 42
     436:	0e 94 e7 01 	call	0x3ce	; 0x3ce <can_cntrl_write>
	can_cntrl_write(CNF2, cnf2_value);
     43a:	60 eb       	ldi	r22, 0xB0	; 176
     43c:	89 e2       	ldi	r24, 0x29	; 41
     43e:	0e 94 e7 01 	call	0x3ce	; 0x3ce <can_cntrl_write>
	can_cntrl_write(CNF3, cnf3_value);
     442:	65 e0       	ldi	r22, 0x05	; 5
     444:	88 e2       	ldi	r24, 0x28	; 40
     446:	0e 94 e7 01 	call	0x3ce	; 0x3ce <can_cntrl_write>
	
	//Set operation mode
	int8_t canctrl_value = can_cntrl_read(CANCTRL);
     44a:	8f e0       	ldi	r24, 0x0F	; 15
     44c:	0e 94 d3 01 	call	0x3a6	; 0x3a6 <can_cntrl_read>
	canctrl_value &= ~(0xE0);
     450:	68 2f       	mov	r22, r24
     452:	6f 71       	andi	r22, 0x1F	; 31
	canctrl_value |= (0x00 << 5);
	can_cntrl_write(CANCTRL, canctrl_value);
     454:	8f e0       	ldi	r24, 0x0F	; 15
     456:	0e 94 e7 01 	call	0x3ce	; 0x3ce <can_cntrl_write>
	SPI_SS_high();
     45a:	0e 94 c4 07 	call	0xf88	; 0xf88 <SPI_SS_high>
     45e:	08 95       	ret

00000460 <can_message_send>:
}



void can_message_send (can_message * msg ) {
     460:	0f 93       	push	r16
     462:	1f 93       	push	r17
     464:	cf 93       	push	r28
     466:	df 93       	push	r29
     468:	8c 01       	movw	r16, r24
	can_cntrl_write(TXB0SIDH, msg->id >> 3);
     46a:	fc 01       	movw	r30, r24
     46c:	60 81       	ld	r22, Z
     46e:	71 81       	ldd	r23, Z+1	; 0x01
     470:	76 95       	lsr	r23
     472:	67 95       	ror	r22
     474:	76 95       	lsr	r23
     476:	67 95       	ror	r22
     478:	76 95       	lsr	r23
     47a:	67 95       	ror	r22
     47c:	81 e3       	ldi	r24, 0x31	; 49
     47e:	0e 94 e7 01 	call	0x3ce	; 0x3ce <can_cntrl_write>
	can_cntrl_write(TXB0SIDL, (msg->id & 0x07) << 5);
     482:	f8 01       	movw	r30, r16
     484:	60 81       	ld	r22, Z
     486:	62 95       	swap	r22
     488:	66 0f       	add	r22, r22
     48a:	60 7e       	andi	r22, 0xE0	; 224
     48c:	82 e3       	ldi	r24, 0x32	; 50
     48e:	0e 94 e7 01 	call	0x3ce	; 0x3ce <can_cntrl_write>
	can_cntrl_write(TXB0DLC, msg->data_length);
     492:	f8 01       	movw	r30, r16
     494:	62 81       	ldd	r22, Z+2	; 0x02
     496:	85 e3       	ldi	r24, 0x35	; 53
     498:	0e 94 e7 01 	call	0x3ce	; 0x3ce <can_cntrl_write>
	
	for (int i = 0; i < msg->data_length; i++){
     49c:	c0 e0       	ldi	r28, 0x00	; 0
     49e:	d0 e0       	ldi	r29, 0x00	; 0
     4a0:	09 c0       	rjmp	.+18     	; 0x4b4 <can_message_send+0x54>
		can_cntrl_write(TXB0D0+i, msg->data[i]);
     4a2:	f8 01       	movw	r30, r16
     4a4:	ec 0f       	add	r30, r28
     4a6:	fd 1f       	adc	r31, r29
     4a8:	63 81       	ldd	r22, Z+3	; 0x03
     4aa:	8c 2f       	mov	r24, r28
     4ac:	8a 5c       	subi	r24, 0xCA	; 202
     4ae:	0e 94 e7 01 	call	0x3ce	; 0x3ce <can_cntrl_write>
void can_message_send (can_message * msg ) {
	can_cntrl_write(TXB0SIDH, msg->id >> 3);
	can_cntrl_write(TXB0SIDL, (msg->id & 0x07) << 5);
	can_cntrl_write(TXB0DLC, msg->data_length);
	
	for (int i = 0; i < msg->data_length; i++){
     4b2:	21 96       	adiw	r28, 0x01	; 1
     4b4:	f8 01       	movw	r30, r16
     4b6:	82 81       	ldd	r24, Z+2	; 0x02
     4b8:	90 e0       	ldi	r25, 0x00	; 0
     4ba:	c8 17       	cp	r28, r24
     4bc:	d9 07       	cpc	r29, r25
     4be:	8c f3       	brlt	.-30     	; 0x4a2 <can_message_send+0x42>
		can_cntrl_write(TXB0D0+i, msg->data[i]);
	}
	can_cntrl_RTS(0x01);
     4c0:	81 e0       	ldi	r24, 0x01	; 1
     4c2:	0e 94 03 02 	call	0x406	; 0x406 <can_cntrl_RTS>
	
}
     4c6:	df 91       	pop	r29
     4c8:	cf 91       	pop	r28
     4ca:	1f 91       	pop	r17
     4cc:	0f 91       	pop	r16
     4ce:	08 95       	ret

000004d0 <can_message_read>:


can_message can_message_read (int buffer) {
     4d0:	bf 92       	push	r11
     4d2:	cf 92       	push	r12
     4d4:	df 92       	push	r13
     4d6:	ef 92       	push	r14
     4d8:	ff 92       	push	r15
     4da:	0f 93       	push	r16
     4dc:	1f 93       	push	r17
     4de:	cf 93       	push	r28
     4e0:	df 93       	push	r29
     4e2:	8c 01       	movw	r16, r24
     4e4:	6b 01       	movw	r12, r22
		sidh=RXB0SIDH;
		sidl=RXB0SIDL;
		dlc=RXB0DLC;
		dOO=RXB0D0;
	}
	if(buffer==1){
     4e6:	61 30       	cpi	r22, 0x01	; 1
     4e8:	71 05       	cpc	r23, r1
     4ea:	71 f0       	breq	.+28     	; 0x508 <__stack+0x9>
     4ec:	0f 2e       	mov	r0, r31
     4ee:	f6 e6       	ldi	r31, 0x66	; 102
     4f0:	ef 2e       	mov	r14, r31
     4f2:	f0 2d       	mov	r31, r0
     4f4:	0f 2e       	mov	r0, r31
     4f6:	f5 e6       	ldi	r31, 0x65	; 101
     4f8:	ff 2e       	mov	r15, r31
     4fa:	f0 2d       	mov	r31, r0
     4fc:	0f 2e       	mov	r0, r31
     4fe:	f2 e6       	ldi	r31, 0x62	; 98
     500:	bf 2e       	mov	r11, r31
     502:	f0 2d       	mov	r31, r0
     504:	81 e6       	ldi	r24, 0x61	; 97
     506:	0d c0       	rjmp	.+26     	; 0x522 <__stack+0x23>
		sidh=RXB1SIDH;
		sidl=RXB1SIDL;
		dlc=RXB1DLC;
		dOO=RXB1D0;
     508:	0f 2e       	mov	r0, r31
     50a:	f6 e7       	ldi	r31, 0x76	; 118
     50c:	ef 2e       	mov	r14, r31
     50e:	f0 2d       	mov	r31, r0
		dOO=RXB0D0;
	}
	if(buffer==1){
		sidh=RXB1SIDH;
		sidl=RXB1SIDL;
		dlc=RXB1DLC;
     510:	0f 2e       	mov	r0, r31
     512:	f5 e7       	ldi	r31, 0x75	; 117
     514:	ff 2e       	mov	r15, r31
     516:	f0 2d       	mov	r31, r0
		dlc=RXB0DLC;
		dOO=RXB0D0;
	}
	if(buffer==1){
		sidh=RXB1SIDH;
		sidl=RXB1SIDL;
     518:	0f 2e       	mov	r0, r31
     51a:	f2 e7       	ldi	r31, 0x72	; 114
     51c:	bf 2e       	mov	r11, r31
     51e:	f0 2d       	mov	r31, r0
		sidl=RXB0SIDL;
		dlc=RXB0DLC;
		dOO=RXB0D0;
	}
	if(buffer==1){
		sidh=RXB1SIDH;
     520:	81 e7       	ldi	r24, 0x71	; 113
		sidl=RXB1SIDL;
		dlc=RXB1DLC;
		dOO=RXB1D0;
	}
	
    uint8_t high = can_cntrl_read(sidh);
     522:	0e 94 d3 01 	call	0x3a6	; 0x3a6 <can_cntrl_read>
     526:	ec 01       	movw	r28, r24
    uint8_t low = can_cntrl_read(sidl);
     528:	8b 2d       	mov	r24, r11
     52a:	0e 94 d3 01 	call	0x3a6	; 0x3a6 <can_cntrl_read>
   
    msg.id = (high << 3) | (low >> 5);
     52e:	dd 27       	eor	r29, r29
     530:	cc 0f       	add	r28, r28
     532:	dd 1f       	adc	r29, r29
     534:	cc 0f       	add	r28, r28
     536:	dd 1f       	adc	r29, r29
     538:	cc 0f       	add	r28, r28
     53a:	dd 1f       	adc	r29, r29
     53c:	82 95       	swap	r24
     53e:	86 95       	lsr	r24
     540:	87 70       	andi	r24, 0x07	; 7
     542:	c8 2b       	or	r28, r24
     544:	f8 01       	movw	r30, r16
     546:	d1 83       	std	Z+1, r29	; 0x01
     548:	c0 83       	st	Z, r28
	msg.data_length = can_cntrl_read(dlc);
     54a:	8f 2d       	mov	r24, r15
     54c:	0e 94 d3 01 	call	0x3a6	; 0x3a6 <can_cntrl_read>
     550:	f8 2e       	mov	r15, r24
     552:	f8 01       	movw	r30, r16
     554:	82 83       	std	Z+2, r24	; 0x02
	
	for (int i = 0; i < msg.data_length; i++){
     556:	c0 e0       	ldi	r28, 0x00	; 0
     558:	d0 e0       	ldi	r29, 0x00	; 0
     55a:	09 c0       	rjmp	.+18     	; 0x56e <__stack+0x6f>
		msg.data[i] = can_cntrl_read(dOO + i);
     55c:	8c 2f       	mov	r24, r28
     55e:	8e 0d       	add	r24, r14
     560:	0e 94 d3 01 	call	0x3a6	; 0x3a6 <can_cntrl_read>
     564:	f8 01       	movw	r30, r16
     566:	ec 0f       	add	r30, r28
     568:	fd 1f       	adc	r31, r29
     56a:	83 83       	std	Z+3, r24	; 0x03
    uint8_t low = can_cntrl_read(sidl);
   
    msg.id = (high << 3) | (low >> 5);
	msg.data_length = can_cntrl_read(dlc);
	
	for (int i = 0; i < msg.data_length; i++){
     56c:	21 96       	adiw	r28, 0x01	; 1
     56e:	8f 2d       	mov	r24, r15
     570:	90 e0       	ldi	r25, 0x00	; 0
     572:	c8 17       	cp	r28, r24
     574:	d9 07       	cpc	r29, r25
     576:	94 f3       	brlt	.-28     	; 0x55c <__stack+0x5d>
		msg.data[i] = can_cntrl_read(dOO + i);
	}
	 if (buffer == 0) {
     578:	c1 14       	cp	r12, r1
     57a:	d1 04       	cpc	r13, r1
     57c:	49 f4       	brne	.+18     	; 0x590 <__stack+0x91>
		    // Clear interrupt flag for buffer 0
		  can_cntrl_write(0x2C, can_cntrl_read(0x2C) & ~0x01);
     57e:	8c e2       	ldi	r24, 0x2C	; 44
     580:	0e 94 d3 01 	call	0x3a6	; 0x3a6 <can_cntrl_read>
     584:	68 2f       	mov	r22, r24
     586:	6e 7f       	andi	r22, 0xFE	; 254
     588:	8c e2       	ldi	r24, 0x2C	; 44
     58a:	0e 94 e7 01 	call	0x3ce	; 0x3ce <can_cntrl_write>
     58e:	0b c0       	rjmp	.+22     	; 0x5a6 <__stack+0xa7>
		    } else if (buffer == 1) {
     590:	ca 94       	dec	r12
     592:	cd 28       	or	r12, r13
     594:	41 f4       	brne	.+16     	; 0x5a6 <__stack+0xa7>
		    // Clear interrupt flag for buffer 1
		    can_cntrl_write(0x2C, can_cntrl_read(0x2C) & ~0x02); //canintf=0x2C
     596:	8c e2       	ldi	r24, 0x2C	; 44
     598:	0e 94 d3 01 	call	0x3a6	; 0x3a6 <can_cntrl_read>
     59c:	68 2f       	mov	r22, r24
     59e:	6d 7f       	andi	r22, 0xFD	; 253
     5a0:	8c e2       	ldi	r24, 0x2C	; 44
     5a2:	0e 94 e7 01 	call	0x3ce	; 0x3ce <can_cntrl_write>
	    }
	return msg;
     5a6:	c8 01       	movw	r24, r16
     5a8:	df 91       	pop	r29
     5aa:	cf 91       	pop	r28
     5ac:	1f 91       	pop	r17
     5ae:	0f 91       	pop	r16
     5b0:	ff 90       	pop	r15
     5b2:	ef 90       	pop	r14
     5b4:	df 90       	pop	r13
     5b6:	cf 90       	pop	r12
     5b8:	bf 90       	pop	r11
     5ba:	08 95       	ret

000005bc <joy_init>:
	}
}


void OLED_home(char* menu_list[], int16_t length){
	OLED_print_menu(menu_list, length);
     5bc:	28 e8       	ldi	r18, 0x88	; 136
     5be:	fc 01       	movw	r30, r24
     5c0:	27 87       	std	Z+15, r18	; 0x0f
     5c2:	20 8b       	std	Z+16, r18	; 0x10
     5c4:	08 95       	ret

000005c6 <io_init>:
     5c6:	cf 93       	push	r28
     5c8:	df 93       	push	r29
     5ca:	ec 01       	movw	r28, r24
     5cc:	0e 94 de 02 	call	0x5bc	; 0x5bc <joy_init>
     5d0:	1d 82       	std	Y+5, r1	; 0x05
     5d2:	1c 82       	std	Y+4, r1	; 0x04
     5d4:	1f 82       	std	Y+7, r1	; 0x07
     5d6:	1e 82       	std	Y+6, r1	; 0x06
     5d8:	84 e0       	ldi	r24, 0x04	; 4
     5da:	88 87       	std	Y+8, r24	; 0x08
     5dc:	19 86       	std	Y+9, r1	; 0x09
     5de:	82 e0       	ldi	r24, 0x02	; 2
     5e0:	8a 87       	std	Y+10, r24	; 0x0a
     5e2:	1b 86       	std	Y+11, r1	; 0x0b
     5e4:	1d 86       	std	Y+13, r1	; 0x0d
     5e6:	1c 86       	std	Y+12, r1	; 0x0c
     5e8:	1b 8a       	std	Y+19, r1	; 0x13
     5ea:	1a 8a       	std	Y+18, r1	; 0x12
     5ec:	1d 8a       	std	Y+21, r1	; 0x15
     5ee:	1c 8a       	std	Y+20, r1	; 0x14
     5f0:	1e 86       	std	Y+14, r1	; 0x0e
     5f2:	19 8a       	std	Y+17, r1	; 0x11
     5f4:	df 91       	pop	r29
     5f6:	cf 91       	pop	r28
     5f8:	08 95       	ret

000005fa <convert_x>:
     5fa:	fc 01       	movw	r30, r24
     5fc:	87 85       	ldd	r24, Z+15	; 0x0f
     5fe:	68 0f       	add	r22, r24
     600:	71 1d       	adc	r23, r1
     602:	87 fd       	sbrc	r24, 7
     604:	7a 95       	dec	r23
     606:	24 e6       	ldi	r18, 0x64	; 100
     608:	26 9f       	mul	r18, r22
     60a:	c0 01       	movw	r24, r0
     60c:	27 9f       	mul	r18, r23
     60e:	90 0d       	add	r25, r0
     610:	11 24       	eor	r1, r1
     612:	99 23       	and	r25, r25
     614:	14 f4       	brge	.+4      	; 0x61a <convert_x+0x20>
     616:	81 58       	subi	r24, 0x81	; 129
     618:	9f 4f       	sbci	r25, 0xFF	; 255
     61a:	88 0f       	add	r24, r24
     61c:	89 2f       	mov	r24, r25
     61e:	88 1f       	adc	r24, r24
     620:	99 0b       	sbc	r25, r25
     622:	08 95       	ret

00000624 <convert_y>:
     624:	fc 01       	movw	r30, r24
     626:	80 89       	ldd	r24, Z+16	; 0x10
     628:	68 0f       	add	r22, r24
     62a:	71 1d       	adc	r23, r1
     62c:	87 fd       	sbrc	r24, 7
     62e:	7a 95       	dec	r23
     630:	24 e6       	ldi	r18, 0x64	; 100
     632:	26 9f       	mul	r18, r22
     634:	c0 01       	movw	r24, r0
     636:	27 9f       	mul	r18, r23
     638:	90 0d       	add	r25, r0
     63a:	11 24       	eor	r1, r1
     63c:	99 23       	and	r25, r25
     63e:	14 f4       	brge	.+4      	; 0x644 <convert_y+0x20>
     640:	81 58       	subi	r24, 0x81	; 129
     642:	9f 4f       	sbci	r25, 0xFF	; 255
     644:	88 0f       	add	r24, r24
     646:	89 2f       	mov	r24, r25
     648:	88 1f       	adc	r24, r24
     64a:	99 0b       	sbc	r25, r25
     64c:	08 95       	ret

0000064e <find_joy_dir>:
     64e:	fc 01       	movw	r30, r24
     650:	80 81       	ld	r24, Z
     652:	91 81       	ldd	r25, Z+1	; 0x01
     654:	cd 97       	sbiw	r24, 0x3d	; 61
     656:	54 f0       	brlt	.+20     	; 0x66c <find_joy_dir+0x1e>
     658:	80 85       	ldd	r24, Z+8	; 0x08
     65a:	82 30       	cpi	r24, 0x02	; 2
     65c:	19 f0       	breq	.+6      	; 0x664 <find_joy_dir+0x16>
     65e:	81 e0       	ldi	r24, 0x01	; 1
     660:	83 87       	std	Z+11, r24	; 0x0b
     662:	01 c0       	rjmp	.+2      	; 0x666 <find_joy_dir+0x18>
     664:	13 86       	std	Z+11, r1	; 0x0b
     666:	82 e0       	ldi	r24, 0x02	; 2
     668:	80 87       	std	Z+8, r24	; 0x08
     66a:	08 95       	ret
     66c:	80 81       	ld	r24, Z
     66e:	91 81       	ldd	r25, Z+1	; 0x01
     670:	84 3c       	cpi	r24, 0xC4	; 196
     672:	9f 4f       	sbci	r25, 0xFF	; 255
     674:	54 f4       	brge	.+20     	; 0x68a <find_joy_dir+0x3c>
     676:	80 85       	ldd	r24, Z+8	; 0x08
     678:	83 30       	cpi	r24, 0x03	; 3
     67a:	19 f0       	breq	.+6      	; 0x682 <find_joy_dir+0x34>
     67c:	81 e0       	ldi	r24, 0x01	; 1
     67e:	83 87       	std	Z+11, r24	; 0x0b
     680:	01 c0       	rjmp	.+2      	; 0x684 <find_joy_dir+0x36>
     682:	13 86       	std	Z+11, r1	; 0x0b
     684:	83 e0       	ldi	r24, 0x03	; 3
     686:	80 87       	std	Z+8, r24	; 0x08
     688:	08 95       	ret
     68a:	82 81       	ldd	r24, Z+2	; 0x02
     68c:	93 81       	ldd	r25, Z+3	; 0x03
     68e:	cd 97       	sbiw	r24, 0x3d	; 61
     690:	54 f0       	brlt	.+20     	; 0x6a6 <find_joy_dir+0x58>
     692:	80 85       	ldd	r24, Z+8	; 0x08
     694:	81 30       	cpi	r24, 0x01	; 1
     696:	19 f0       	breq	.+6      	; 0x69e <find_joy_dir+0x50>
     698:	81 e0       	ldi	r24, 0x01	; 1
     69a:	83 87       	std	Z+11, r24	; 0x0b
     69c:	01 c0       	rjmp	.+2      	; 0x6a0 <find_joy_dir+0x52>
     69e:	13 86       	std	Z+11, r1	; 0x0b
     6a0:	81 e0       	ldi	r24, 0x01	; 1
     6a2:	80 87       	std	Z+8, r24	; 0x08
     6a4:	08 95       	ret
     6a6:	82 81       	ldd	r24, Z+2	; 0x02
     6a8:	93 81       	ldd	r25, Z+3	; 0x03
     6aa:	84 3c       	cpi	r24, 0xC4	; 196
     6ac:	9f 4f       	sbci	r25, 0xFF	; 255
     6ae:	4c f4       	brge	.+18     	; 0x6c2 <find_joy_dir+0x74>
     6b0:	80 85       	ldd	r24, Z+8	; 0x08
     6b2:	88 23       	and	r24, r24
     6b4:	19 f0       	breq	.+6      	; 0x6bc <find_joy_dir+0x6e>
     6b6:	81 e0       	ldi	r24, 0x01	; 1
     6b8:	83 87       	std	Z+11, r24	; 0x0b
     6ba:	01 c0       	rjmp	.+2      	; 0x6be <find_joy_dir+0x70>
     6bc:	13 86       	std	Z+11, r1	; 0x0b
     6be:	10 86       	std	Z+8, r1	; 0x08
     6c0:	08 95       	ret
     6c2:	80 85       	ldd	r24, Z+8	; 0x08
     6c4:	84 30       	cpi	r24, 0x04	; 4
     6c6:	19 f0       	breq	.+6      	; 0x6ce <find_joy_dir+0x80>
     6c8:	81 e0       	ldi	r24, 0x01	; 1
     6ca:	83 87       	std	Z+11, r24	; 0x0b
     6cc:	01 c0       	rjmp	.+2      	; 0x6d0 <find_joy_dir+0x82>
     6ce:	13 86       	std	Z+11, r1	; 0x0b
     6d0:	84 e0       	ldi	r24, 0x04	; 4
     6d2:	80 87       	std	Z+8, r24	; 0x08
     6d4:	08 95       	ret

000006d6 <get_states>:
     6d6:	cf 93       	push	r28
     6d8:	df 93       	push	r29
     6da:	ec 01       	movw	r28, r24
     6dc:	8a 85       	ldd	r24, Y+10	; 0x0a
     6de:	28 2f       	mov	r18, r24
     6e0:	08 2e       	mov	r0, r24
     6e2:	00 0c       	add	r0, r0
     6e4:	33 0b       	sbc	r19, r19
     6e6:	3f 93       	push	r19
     6e8:	8f 93       	push	r24
     6ea:	80 e2       	ldi	r24, 0x20	; 32
     6ec:	91 e0       	ldi	r25, 0x01	; 1
     6ee:	9f 93       	push	r25
     6f0:	8f 93       	push	r24
     6f2:	0e 94 53 09 	call	0x12a6	; 0x12a6 <printf>
     6f6:	89 85       	ldd	r24, Y+9	; 0x09
     6f8:	1f 92       	push	r1
     6fa:	8f 93       	push	r24
     6fc:	83 e3       	ldi	r24, 0x33	; 51
     6fe:	91 e0       	ldi	r25, 0x01	; 1
     700:	9f 93       	push	r25
     702:	8f 93       	push	r24
     704:	0e 94 53 09 	call	0x12a6	; 0x12a6 <printf>
     708:	88 85       	ldd	r24, Y+8	; 0x08
     70a:	1f 92       	push	r1
     70c:	8f 93       	push	r24
     70e:	80 e4       	ldi	r24, 0x40	; 64
     710:	91 e0       	ldi	r25, 0x01	; 1
     712:	9f 93       	push	r25
     714:	8f 93       	push	r24
     716:	0e 94 53 09 	call	0x12a6	; 0x12a6 <printf>
     71a:	88 81       	ld	r24, Y
     71c:	99 81       	ldd	r25, Y+1	; 0x01
     71e:	9f 93       	push	r25
     720:	8f 93       	push	r24
     722:	89 e5       	ldi	r24, 0x59	; 89
     724:	91 e0       	ldi	r25, 0x01	; 1
     726:	9f 93       	push	r25
     728:	8f 93       	push	r24
     72a:	0e 94 53 09 	call	0x12a6	; 0x12a6 <printf>
     72e:	8a 81       	ldd	r24, Y+2	; 0x02
     730:	9b 81       	ldd	r25, Y+3	; 0x03
     732:	9f 93       	push	r25
     734:	8f 93       	push	r24
     736:	8d e6       	ldi	r24, 0x6D	; 109
     738:	91 e0       	ldi	r25, 0x01	; 1
     73a:	9f 93       	push	r25
     73c:	8f 93       	push	r24
     73e:	0e 94 53 09 	call	0x12a6	; 0x12a6 <printf>
     742:	8c 81       	ldd	r24, Y+4	; 0x04
     744:	9d 81       	ldd	r25, Y+5	; 0x05
     746:	9f 93       	push	r25
     748:	8f 93       	push	r24
     74a:	81 e8       	ldi	r24, 0x81	; 129
     74c:	91 e0       	ldi	r25, 0x01	; 1
     74e:	9f 93       	push	r25
     750:	8f 93       	push	r24
     752:	0e 94 53 09 	call	0x12a6	; 0x12a6 <printf>
     756:	8e 81       	ldd	r24, Y+6	; 0x06
     758:	9f 81       	ldd	r25, Y+7	; 0x07
     75a:	9f 93       	push	r25
     75c:	8f 93       	push	r24
     75e:	83 e9       	ldi	r24, 0x93	; 147
     760:	91 e0       	ldi	r25, 0x01	; 1
     762:	9f 93       	push	r25
     764:	8f 93       	push	r24
     766:	0e 94 53 09 	call	0x12a6	; 0x12a6 <printf>
     76a:	8a e0       	ldi	r24, 0x0A	; 10
     76c:	90 e0       	ldi	r25, 0x00	; 0
     76e:	0e 94 69 09 	call	0x12d2	; 0x12d2 <putchar>
     772:	8d b7       	in	r24, 0x3d	; 61
     774:	9e b7       	in	r25, 0x3e	; 62
     776:	4c 96       	adiw	r24, 0x1c	; 28
     778:	0f b6       	in	r0, 0x3f	; 63
     77a:	f8 94       	cli
     77c:	9e bf       	out	0x3e, r25	; 62
     77e:	0f be       	out	0x3f, r0	; 63
     780:	8d bf       	out	0x3d, r24	; 61
     782:	df 91       	pop	r29
     784:	cf 91       	pop	r28
     786:	08 95       	ret

00000788 <get_joy_x>:
     788:	fc 01       	movw	r30, r24
     78a:	80 81       	ld	r24, Z
     78c:	91 81       	ldd	r25, Z+1	; 0x01
     78e:	08 95       	ret

00000790 <get_joy_y>:
     790:	fc 01       	movw	r30, r24
     792:	82 81       	ldd	r24, Z+2	; 0x02
     794:	93 81       	ldd	r25, Z+3	; 0x03
     796:	08 95       	ret

00000798 <read_button>:
     798:	84 e0       	ldi	r24, 0x04	; 4
     79a:	88 bb       	out	0x18, r24	; 24
     79c:	87 b3       	in	r24, 0x17	; 23
     79e:	8b 7f       	andi	r24, 0xFB	; 251
     7a0:	87 bb       	out	0x17, r24	; 23
     7a2:	10 be       	out	0x30, r1	; 48
     7a4:	b2 9b       	sbis	0x16, 2	; 22
     7a6:	02 c0       	rjmp	.+4      	; 0x7ac <read_button+0x14>
     7a8:	80 e0       	ldi	r24, 0x00	; 0
     7aa:	08 95       	ret
     7ac:	81 e0       	ldi	r24, 0x01	; 1
     7ae:	08 95       	ret

000007b0 <oled_init>:
     7b0:	40 e0       	ldi	r20, 0x00	; 0
     7b2:	50 e1       	ldi	r21, 0x10	; 16
     7b4:	60 e0       	ldi	r22, 0x00	; 0
     7b6:	70 e0       	ldi	r23, 0x00	; 0
     7b8:	8e ea       	ldi	r24, 0xAE	; 174
     7ba:	0e 94 fe 07 	call	0xffc	; 0xffc <xmem_write>
     7be:	40 e0       	ldi	r20, 0x00	; 0
     7c0:	50 e1       	ldi	r21, 0x10	; 16
     7c2:	60 e0       	ldi	r22, 0x00	; 0
     7c4:	70 e0       	ldi	r23, 0x00	; 0
     7c6:	81 ea       	ldi	r24, 0xA1	; 161
     7c8:	0e 94 fe 07 	call	0xffc	; 0xffc <xmem_write>
     7cc:	40 e0       	ldi	r20, 0x00	; 0
     7ce:	50 e1       	ldi	r21, 0x10	; 16
     7d0:	60 e0       	ldi	r22, 0x00	; 0
     7d2:	70 e0       	ldi	r23, 0x00	; 0
     7d4:	8a ed       	ldi	r24, 0xDA	; 218
     7d6:	0e 94 fe 07 	call	0xffc	; 0xffc <xmem_write>
     7da:	40 e0       	ldi	r20, 0x00	; 0
     7dc:	50 e1       	ldi	r21, 0x10	; 16
     7de:	60 e0       	ldi	r22, 0x00	; 0
     7e0:	70 e0       	ldi	r23, 0x00	; 0
     7e2:	82 e1       	ldi	r24, 0x12	; 18
     7e4:	0e 94 fe 07 	call	0xffc	; 0xffc <xmem_write>
     7e8:	40 e0       	ldi	r20, 0x00	; 0
     7ea:	50 e1       	ldi	r21, 0x10	; 16
     7ec:	60 e0       	ldi	r22, 0x00	; 0
     7ee:	70 e0       	ldi	r23, 0x00	; 0
     7f0:	88 ec       	ldi	r24, 0xC8	; 200
     7f2:	0e 94 fe 07 	call	0xffc	; 0xffc <xmem_write>
     7f6:	40 e0       	ldi	r20, 0x00	; 0
     7f8:	50 e1       	ldi	r21, 0x10	; 16
     7fa:	60 e0       	ldi	r22, 0x00	; 0
     7fc:	70 e0       	ldi	r23, 0x00	; 0
     7fe:	88 ea       	ldi	r24, 0xA8	; 168
     800:	0e 94 fe 07 	call	0xffc	; 0xffc <xmem_write>
     804:	40 e0       	ldi	r20, 0x00	; 0
     806:	50 e1       	ldi	r21, 0x10	; 16
     808:	60 e0       	ldi	r22, 0x00	; 0
     80a:	70 e0       	ldi	r23, 0x00	; 0
     80c:	8f e3       	ldi	r24, 0x3F	; 63
     80e:	0e 94 fe 07 	call	0xffc	; 0xffc <xmem_write>
     812:	40 e0       	ldi	r20, 0x00	; 0
     814:	50 e1       	ldi	r21, 0x10	; 16
     816:	60 e0       	ldi	r22, 0x00	; 0
     818:	70 e0       	ldi	r23, 0x00	; 0
     81a:	85 ed       	ldi	r24, 0xD5	; 213
     81c:	0e 94 fe 07 	call	0xffc	; 0xffc <xmem_write>
     820:	40 e0       	ldi	r20, 0x00	; 0
     822:	50 e1       	ldi	r21, 0x10	; 16
     824:	60 e0       	ldi	r22, 0x00	; 0
     826:	70 e0       	ldi	r23, 0x00	; 0
     828:	80 e8       	ldi	r24, 0x80	; 128
     82a:	0e 94 fe 07 	call	0xffc	; 0xffc <xmem_write>
     82e:	40 e0       	ldi	r20, 0x00	; 0
     830:	50 e1       	ldi	r21, 0x10	; 16
     832:	60 e0       	ldi	r22, 0x00	; 0
     834:	70 e0       	ldi	r23, 0x00	; 0
     836:	81 e8       	ldi	r24, 0x81	; 129
     838:	0e 94 fe 07 	call	0xffc	; 0xffc <xmem_write>
     83c:	40 e0       	ldi	r20, 0x00	; 0
     83e:	50 e1       	ldi	r21, 0x10	; 16
     840:	60 e0       	ldi	r22, 0x00	; 0
     842:	70 e0       	ldi	r23, 0x00	; 0
     844:	80 e5       	ldi	r24, 0x50	; 80
     846:	0e 94 fe 07 	call	0xffc	; 0xffc <xmem_write>
     84a:	40 e0       	ldi	r20, 0x00	; 0
     84c:	50 e1       	ldi	r21, 0x10	; 16
     84e:	60 e0       	ldi	r22, 0x00	; 0
     850:	70 e0       	ldi	r23, 0x00	; 0
     852:	89 ed       	ldi	r24, 0xD9	; 217
     854:	0e 94 fe 07 	call	0xffc	; 0xffc <xmem_write>
     858:	40 e0       	ldi	r20, 0x00	; 0
     85a:	50 e1       	ldi	r21, 0x10	; 16
     85c:	60 e0       	ldi	r22, 0x00	; 0
     85e:	70 e0       	ldi	r23, 0x00	; 0
     860:	81 e2       	ldi	r24, 0x21	; 33
     862:	0e 94 fe 07 	call	0xffc	; 0xffc <xmem_write>
     866:	40 e0       	ldi	r20, 0x00	; 0
     868:	50 e1       	ldi	r21, 0x10	; 16
     86a:	60 e0       	ldi	r22, 0x00	; 0
     86c:	70 e0       	ldi	r23, 0x00	; 0
     86e:	80 e2       	ldi	r24, 0x20	; 32
     870:	0e 94 fe 07 	call	0xffc	; 0xffc <xmem_write>
     874:	40 e0       	ldi	r20, 0x00	; 0
     876:	50 e1       	ldi	r21, 0x10	; 16
     878:	60 e0       	ldi	r22, 0x00	; 0
     87a:	70 e0       	ldi	r23, 0x00	; 0
     87c:	82 e0       	ldi	r24, 0x02	; 2
     87e:	0e 94 fe 07 	call	0xffc	; 0xffc <xmem_write>
     882:	40 e0       	ldi	r20, 0x00	; 0
     884:	50 e1       	ldi	r21, 0x10	; 16
     886:	60 e0       	ldi	r22, 0x00	; 0
     888:	70 e0       	ldi	r23, 0x00	; 0
     88a:	8b ed       	ldi	r24, 0xDB	; 219
     88c:	0e 94 fe 07 	call	0xffc	; 0xffc <xmem_write>
     890:	40 e0       	ldi	r20, 0x00	; 0
     892:	50 e1       	ldi	r21, 0x10	; 16
     894:	60 e0       	ldi	r22, 0x00	; 0
     896:	70 e0       	ldi	r23, 0x00	; 0
     898:	80 e3       	ldi	r24, 0x30	; 48
     89a:	0e 94 fe 07 	call	0xffc	; 0xffc <xmem_write>
     89e:	40 e0       	ldi	r20, 0x00	; 0
     8a0:	50 e1       	ldi	r21, 0x10	; 16
     8a2:	60 e0       	ldi	r22, 0x00	; 0
     8a4:	70 e0       	ldi	r23, 0x00	; 0
     8a6:	8d ea       	ldi	r24, 0xAD	; 173
     8a8:	0e 94 fe 07 	call	0xffc	; 0xffc <xmem_write>
     8ac:	40 e0       	ldi	r20, 0x00	; 0
     8ae:	50 e1       	ldi	r21, 0x10	; 16
     8b0:	60 e0       	ldi	r22, 0x00	; 0
     8b2:	70 e0       	ldi	r23, 0x00	; 0
     8b4:	80 e0       	ldi	r24, 0x00	; 0
     8b6:	0e 94 fe 07 	call	0xffc	; 0xffc <xmem_write>
     8ba:	40 e0       	ldi	r20, 0x00	; 0
     8bc:	50 e1       	ldi	r21, 0x10	; 16
     8be:	60 e0       	ldi	r22, 0x00	; 0
     8c0:	70 e0       	ldi	r23, 0x00	; 0
     8c2:	84 ea       	ldi	r24, 0xA4	; 164
     8c4:	0e 94 fe 07 	call	0xffc	; 0xffc <xmem_write>
     8c8:	40 e0       	ldi	r20, 0x00	; 0
     8ca:	50 e1       	ldi	r21, 0x10	; 16
     8cc:	60 e0       	ldi	r22, 0x00	; 0
     8ce:	70 e0       	ldi	r23, 0x00	; 0
     8d0:	86 ea       	ldi	r24, 0xA6	; 166
     8d2:	0e 94 fe 07 	call	0xffc	; 0xffc <xmem_write>
     8d6:	40 e0       	ldi	r20, 0x00	; 0
     8d8:	50 e1       	ldi	r21, 0x10	; 16
     8da:	60 e0       	ldi	r22, 0x00	; 0
     8dc:	70 e0       	ldi	r23, 0x00	; 0
     8de:	8f ea       	ldi	r24, 0xAF	; 175
     8e0:	0e 94 fe 07 	call	0xffc	; 0xffc <xmem_write>
     8e4:	08 95       	ret

000008e6 <OLED_goto_row>:
     8e6:	40 e0       	ldi	r20, 0x00	; 0
     8e8:	50 e1       	ldi	r21, 0x10	; 16
     8ea:	60 e0       	ldi	r22, 0x00	; 0
     8ec:	70 e0       	ldi	r23, 0x00	; 0
     8ee:	80 55       	subi	r24, 0x50	; 80
     8f0:	0e 94 fe 07 	call	0xffc	; 0xffc <xmem_write>
     8f4:	08 95       	ret

000008f6 <OLED_goto_column>:
     8f6:	cf 93       	push	r28
     8f8:	c8 2f       	mov	r28, r24
     8fa:	40 e0       	ldi	r20, 0x00	; 0
     8fc:	50 e1       	ldi	r21, 0x10	; 16
     8fe:	60 e0       	ldi	r22, 0x00	; 0
     900:	70 e0       	ldi	r23, 0x00	; 0
     902:	8f 70       	andi	r24, 0x0F	; 15
     904:	0e 94 fe 07 	call	0xffc	; 0xffc <xmem_write>
     908:	8c 2f       	mov	r24, r28
     90a:	85 95       	asr	r24
     90c:	85 95       	asr	r24
     90e:	85 95       	asr	r24
     910:	85 95       	asr	r24
     912:	40 e0       	ldi	r20, 0x00	; 0
     914:	50 e1       	ldi	r21, 0x10	; 16
     916:	60 e0       	ldi	r22, 0x00	; 0
     918:	70 e0       	ldi	r23, 0x00	; 0
     91a:	80 61       	ori	r24, 0x10	; 16
     91c:	0e 94 fe 07 	call	0xffc	; 0xffc <xmem_write>
     920:	cf 91       	pop	r28
     922:	08 95       	ret

00000924 <OLED_pos>:
     924:	cf 93       	push	r28
     926:	c6 2f       	mov	r28, r22
     928:	0e 94 73 04 	call	0x8e6	; 0x8e6 <OLED_goto_row>
     92c:	8c 2f       	mov	r24, r28
     92e:	0e 94 7b 04 	call	0x8f6	; 0x8f6 <OLED_goto_column>
     932:	cf 91       	pop	r28
     934:	08 95       	ret

00000936 <OLED_clear_row>:
     936:	cf 93       	push	r28
     938:	df 93       	push	r29
     93a:	60 e0       	ldi	r22, 0x00	; 0
     93c:	0e 94 92 04 	call	0x924	; 0x924 <OLED_pos>
     940:	c0 e0       	ldi	r28, 0x00	; 0
     942:	d0 e0       	ldi	r29, 0x00	; 0
     944:	08 c0       	rjmp	.+16     	; 0x956 <OLED_clear_row+0x20>
     946:	40 e0       	ldi	r20, 0x00	; 0
     948:	52 e1       	ldi	r21, 0x12	; 18
     94a:	60 e0       	ldi	r22, 0x00	; 0
     94c:	70 e0       	ldi	r23, 0x00	; 0
     94e:	80 e0       	ldi	r24, 0x00	; 0
     950:	0e 94 fe 07 	call	0xffc	; 0xffc <xmem_write>
     954:	21 96       	adiw	r28, 0x01	; 1
     956:	c0 38       	cpi	r28, 0x80	; 128
     958:	d1 05       	cpc	r29, r1
     95a:	ac f3       	brlt	.-22     	; 0x946 <OLED_clear_row+0x10>
     95c:	df 91       	pop	r29
     95e:	cf 91       	pop	r28
     960:	08 95       	ret

00000962 <OLED_reset>:
     962:	cf 93       	push	r28
     964:	df 93       	push	r29
     966:	60 e0       	ldi	r22, 0x00	; 0
     968:	80 e0       	ldi	r24, 0x00	; 0
     96a:	0e 94 92 04 	call	0x924	; 0x924 <OLED_pos>
     96e:	c0 e0       	ldi	r28, 0x00	; 0
     970:	d0 e0       	ldi	r29, 0x00	; 0
     972:	07 c0       	rjmp	.+14     	; 0x982 <OLED_reset+0x20>
     974:	8c 2f       	mov	r24, r28
     976:	0e 94 9b 04 	call	0x936	; 0x936 <OLED_clear_row>
     97a:	8c 2f       	mov	r24, r28
     97c:	0e 94 73 04 	call	0x8e6	; 0x8e6 <OLED_goto_row>
     980:	21 96       	adiw	r28, 0x01	; 1
     982:	c8 30       	cpi	r28, 0x08	; 8
     984:	d1 05       	cpc	r29, r1
     986:	b4 f3       	brlt	.-20     	; 0x974 <OLED_reset+0x12>
     988:	df 91       	pop	r29
     98a:	cf 91       	pop	r28
     98c:	08 95       	ret

0000098e <OLED_write_data>:
     98e:	1f 93       	push	r17
     990:	cf 93       	push	r28
     992:	df 93       	push	r29
     994:	18 2f       	mov	r17, r24
     996:	c0 e0       	ldi	r28, 0x00	; 0
     998:	d0 e0       	ldi	r29, 0x00	; 0
     99a:	15 c0       	rjmp	.+42     	; 0x9c6 <OLED_write_data+0x38>
     99c:	e1 2f       	mov	r30, r17
     99e:	f0 e0       	ldi	r31, 0x00	; 0
     9a0:	b0 97       	sbiw	r30, 0x20	; 32
     9a2:	ee 0f       	add	r30, r30
     9a4:	ff 1f       	adc	r31, r31
     9a6:	ee 0f       	add	r30, r30
     9a8:	ff 1f       	adc	r31, r31
     9aa:	ee 0f       	add	r30, r30
     9ac:	ff 1f       	adc	r31, r31
     9ae:	ec 0f       	add	r30, r28
     9b0:	fd 1f       	adc	r31, r29
     9b2:	e0 59       	subi	r30, 0x90	; 144
     9b4:	ff 4f       	sbci	r31, 0xFF	; 255
     9b6:	84 91       	lpm	r24, Z
     9b8:	40 e0       	ldi	r20, 0x00	; 0
     9ba:	52 e1       	ldi	r21, 0x12	; 18
     9bc:	60 e0       	ldi	r22, 0x00	; 0
     9be:	70 e0       	ldi	r23, 0x00	; 0
     9c0:	0e 94 fe 07 	call	0xffc	; 0xffc <xmem_write>
     9c4:	21 96       	adiw	r28, 0x01	; 1
     9c6:	c8 30       	cpi	r28, 0x08	; 8
     9c8:	d1 05       	cpc	r29, r1
     9ca:	44 f3       	brlt	.-48     	; 0x99c <OLED_write_data+0xe>
     9cc:	df 91       	pop	r29
     9ce:	cf 91       	pop	r28
     9d0:	1f 91       	pop	r17
     9d2:	08 95       	ret

000009d4 <OLED_print>:
     9d4:	cf 93       	push	r28
     9d6:	df 93       	push	r29
     9d8:	ec 01       	movw	r28, r24
     9da:	40 e0       	ldi	r20, 0x00	; 0
     9dc:	50 e1       	ldi	r21, 0x10	; 16
     9de:	60 e0       	ldi	r22, 0x00	; 0
     9e0:	70 e0       	ldi	r23, 0x00	; 0
     9e2:	80 e2       	ldi	r24, 0x20	; 32
     9e4:	0e 94 fe 07 	call	0xffc	; 0xffc <xmem_write>
     9e8:	40 e0       	ldi	r20, 0x00	; 0
     9ea:	50 e1       	ldi	r21, 0x10	; 16
     9ec:	60 e0       	ldi	r22, 0x00	; 0
     9ee:	70 e0       	ldi	r23, 0x00	; 0
     9f0:	82 e0       	ldi	r24, 0x02	; 2
     9f2:	0e 94 fe 07 	call	0xffc	; 0xffc <xmem_write>
     9f6:	03 c0       	rjmp	.+6      	; 0x9fe <OLED_print+0x2a>
     9f8:	0e 94 c7 04 	call	0x98e	; 0x98e <OLED_write_data>
     9fc:	21 96       	adiw	r28, 0x01	; 1
     9fe:	88 81       	ld	r24, Y
     a00:	81 11       	cpse	r24, r1
     a02:	fa cf       	rjmp	.-12     	; 0x9f8 <OLED_print+0x24>
     a04:	df 91       	pop	r29
     a06:	cf 91       	pop	r28
     a08:	08 95       	ret

00000a0a <set_menu_ptr>:
     a0a:	cf 93       	push	r28
     a0c:	df 93       	push	r29
     a0e:	ec 01       	movw	r28, r24
     a10:	98 85       	ldd	r25, Y+8	; 0x08
     a12:	93 30       	cpi	r25, 0x03	; 3
     a14:	b9 f4       	brne	.+46     	; 0xa44 <set_menu_ptr+0x3a>
     a16:	8b 85       	ldd	r24, Y+11	; 0x0b
     a18:	88 23       	and	r24, r24
     a1a:	a1 f0       	breq	.+40     	; 0xa44 <set_menu_ptr+0x3a>
     a1c:	8a 85       	ldd	r24, Y+10	; 0x0a
     a1e:	87 30       	cpi	r24, 0x07	; 7
     a20:	8c f4       	brge	.+34     	; 0xa44 <set_menu_ptr+0x3a>
     a22:	6e e6       	ldi	r22, 0x6E	; 110
     a24:	0e 94 92 04 	call	0x924	; 0x924 <OLED_pos>
     a28:	86 ea       	ldi	r24, 0xA6	; 166
     a2a:	91 e0       	ldi	r25, 0x01	; 1
     a2c:	0e 94 ea 04 	call	0x9d4	; 0x9d4 <OLED_print>
     a30:	8a 85       	ldd	r24, Y+10	; 0x0a
     a32:	8f 5f       	subi	r24, 0xFF	; 255
     a34:	8a 87       	std	Y+10, r24	; 0x0a
     a36:	ec 85       	ldd	r30, Y+12	; 0x0c
     a38:	fd 85       	ldd	r31, Y+13	; 0x0d
     a3a:	86 81       	ldd	r24, Z+6	; 0x06
     a3c:	97 81       	ldd	r25, Z+7	; 0x07
     a3e:	9d 87       	std	Y+13, r25	; 0x0d
     a40:	8c 87       	std	Y+12, r24	; 0x0c
     a42:	18 c0       	rjmp	.+48     	; 0xa74 <set_menu_ptr+0x6a>
     a44:	92 30       	cpi	r25, 0x02	; 2
     a46:	b1 f4       	brne	.+44     	; 0xa74 <set_menu_ptr+0x6a>
     a48:	8b 85       	ldd	r24, Y+11	; 0x0b
     a4a:	88 23       	and	r24, r24
     a4c:	99 f0       	breq	.+38     	; 0xa74 <set_menu_ptr+0x6a>
     a4e:	8a 85       	ldd	r24, Y+10	; 0x0a
     a50:	83 30       	cpi	r24, 0x03	; 3
     a52:	84 f0       	brlt	.+32     	; 0xa74 <set_menu_ptr+0x6a>
     a54:	6e e6       	ldi	r22, 0x6E	; 110
     a56:	0e 94 92 04 	call	0x924	; 0x924 <OLED_pos>
     a5a:	86 ea       	ldi	r24, 0xA6	; 166
     a5c:	91 e0       	ldi	r25, 0x01	; 1
     a5e:	0e 94 ea 04 	call	0x9d4	; 0x9d4 <OLED_print>
     a62:	8a 85       	ldd	r24, Y+10	; 0x0a
     a64:	81 50       	subi	r24, 0x01	; 1
     a66:	8a 87       	std	Y+10, r24	; 0x0a
     a68:	ec 85       	ldd	r30, Y+12	; 0x0c
     a6a:	fd 85       	ldd	r31, Y+13	; 0x0d
     a6c:	84 81       	ldd	r24, Z+4	; 0x04
     a6e:	95 81       	ldd	r25, Z+5	; 0x05
     a70:	9d 87       	std	Y+13, r25	; 0x0d
     a72:	8c 87       	std	Y+12, r24	; 0x0c
     a74:	6e e6       	ldi	r22, 0x6E	; 110
     a76:	8a 85       	ldd	r24, Y+10	; 0x0a
     a78:	0e 94 92 04 	call	0x924	; 0x924 <OLED_pos>
     a7c:	89 ea       	ldi	r24, 0xA9	; 169
     a7e:	91 e0       	ldi	r25, 0x01	; 1
     a80:	0e 94 ea 04 	call	0x9d4	; 0x9d4 <OLED_print>
     a84:	df 91       	pop	r29
     a86:	cf 91       	pop	r28
     a88:	08 95       	ret

00000a8a <create_menu_item>:
}

menu_item *create_menu_item (const char *name, menu_item *parent){
     a8a:	ef 92       	push	r14
     a8c:	ff 92       	push	r15
     a8e:	0f 93       	push	r16
     a90:	1f 93       	push	r17
     a92:	cf 93       	push	r28
     a94:	df 93       	push	r29
     a96:	7c 01       	movw	r14, r24
     a98:	8b 01       	movw	r16, r22
	menu_item *new_item = (menu_item*) malloc(sizeof(menu_item));
     a9a:	8b e0       	ldi	r24, 0x0B	; 11
     a9c:	90 e0       	ldi	r25, 0x00	; 0
     a9e:	0e 94 08 08 	call	0x1010	; 0x1010 <malloc>
     aa2:	ec 01       	movw	r28, r24
	new_item->menu_name = strdup(name);
     aa4:	c7 01       	movw	r24, r14
     aa6:	0e 94 29 09 	call	0x1252	; 0x1252 <strdup>
     aaa:	99 87       	std	Y+9, r25	; 0x09
     aac:	88 87       	std	Y+8, r24	; 0x08
	new_item->parent = parent;
     aae:	19 83       	std	Y+1, r17	; 0x01
     ab0:	08 83       	st	Y, r16
	new_item->first_child = NULL;
     ab2:	1b 82       	std	Y+3, r1	; 0x03
     ab4:	1a 82       	std	Y+2, r1	; 0x02
	new_item->previous_sibling=NULL;
     ab6:	1d 82       	std	Y+5, r1	; 0x05
     ab8:	1c 82       	std	Y+4, r1	; 0x04
	new_item->next_sibling = NULL;
     aba:	1f 82       	std	Y+7, r1	; 0x07
     abc:	1e 82       	std	Y+6, r1	; 0x06
	return new_item;
}
     abe:	ce 01       	movw	r24, r28
     ac0:	df 91       	pop	r29
     ac2:	cf 91       	pop	r28
     ac4:	1f 91       	pop	r17
     ac6:	0f 91       	pop	r16
     ac8:	ff 90       	pop	r15
     aca:	ef 90       	pop	r14
     acc:	08 95       	ret

00000ace <add_submenu>:

void add_submenu(menu_item *parent, const char *name){
     ace:	cf 93       	push	r28
     ad0:	df 93       	push	r29
     ad2:	ec 01       	movw	r28, r24
     ad4:	cb 01       	movw	r24, r22
	menu_item *new_item=create_menu_item(name,parent);
     ad6:	be 01       	movw	r22, r28
     ad8:	0e 94 45 05 	call	0xa8a	; 0xa8a <create_menu_item>
	if (parent->first_child==NULL){
     adc:	ea 81       	ldd	r30, Y+2	; 0x02
     ade:	fb 81       	ldd	r31, Y+3	; 0x03
     ae0:	30 97       	sbiw	r30, 0x00	; 0
     ae2:	21 f4       	brne	.+8      	; 0xaec <add_submenu+0x1e>
		parent->first_child = new_item;
     ae4:	9b 83       	std	Y+3, r25	; 0x03
     ae6:	8a 83       	std	Y+2, r24	; 0x02
     ae8:	0d c0       	rjmp	.+26     	; 0xb04 <add_submenu+0x36>
		} else {
		menu_item *current= parent->first_child;
		
		while(current->next_sibling!=NULL){
			current = current->next_sibling;
     aea:	f9 01       	movw	r30, r18
	if (parent->first_child==NULL){
		parent->first_child = new_item;
		} else {
		menu_item *current= parent->first_child;
		
		while(current->next_sibling!=NULL){
     aec:	26 81       	ldd	r18, Z+6	; 0x06
     aee:	37 81       	ldd	r19, Z+7	; 0x07
     af0:	21 15       	cp	r18, r1
     af2:	31 05       	cpc	r19, r1
     af4:	d1 f7       	brne	.-12     	; 0xaea <add_submenu+0x1c>
			current = current->next_sibling;
		}
		current->next_sibling=new_item;
     af6:	97 83       	std	Z+7, r25	; 0x07
     af8:	86 83       	std	Z+6, r24	; 0x06
		new_item->previous_sibling=current;
     afa:	dc 01       	movw	r26, r24
     afc:	15 96       	adiw	r26, 0x05	; 5
     afe:	fc 93       	st	X, r31
     b00:	ee 93       	st	-X, r30
     b02:	14 97       	sbiw	r26, 0x04	; 4
	}
}
     b04:	df 91       	pop	r29
     b06:	cf 91       	pop	r28
     b08:	08 95       	ret

00000b0a <add_submenu_from_list>:

void add_submenu_from_list(menu_item *parent, const char** menu_list, int8_t length){
     b0a:	df 92       	push	r13
     b0c:	ef 92       	push	r14
     b0e:	ff 92       	push	r15
     b10:	0f 93       	push	r16
     b12:	1f 93       	push	r17
     b14:	cf 93       	push	r28
     b16:	df 93       	push	r29
     b18:	7c 01       	movw	r14, r24
     b1a:	8b 01       	movw	r16, r22
     b1c:	d4 2e       	mov	r13, r20
	for(int i=0; i<length; i++){
     b1e:	c0 e0       	ldi	r28, 0x00	; 0
     b20:	d0 e0       	ldi	r29, 0x00	; 0
     b22:	0b c0       	rjmp	.+22     	; 0xb3a <add_submenu_from_list+0x30>
		add_submenu(parent, menu_list[i]);
     b24:	fe 01       	movw	r30, r28
     b26:	ee 0f       	add	r30, r30
     b28:	ff 1f       	adc	r31, r31
     b2a:	e0 0f       	add	r30, r16
     b2c:	f1 1f       	adc	r31, r17
     b2e:	60 81       	ld	r22, Z
     b30:	71 81       	ldd	r23, Z+1	; 0x01
     b32:	c7 01       	movw	r24, r14
     b34:	0e 94 67 05 	call	0xace	; 0xace <add_submenu>
		new_item->previous_sibling=current;
	}
}

void add_submenu_from_list(menu_item *parent, const char** menu_list, int8_t length){
	for(int i=0; i<length; i++){
     b38:	21 96       	adiw	r28, 0x01	; 1
     b3a:	8d 2d       	mov	r24, r13
     b3c:	0d 2c       	mov	r0, r13
     b3e:	00 0c       	add	r0, r0
     b40:	99 0b       	sbc	r25, r25
     b42:	c8 17       	cp	r28, r24
     b44:	d9 07       	cpc	r29, r25
     b46:	74 f3       	brlt	.-36     	; 0xb24 <add_submenu_from_list+0x1a>
		add_submenu(parent, menu_list[i]);
	}
}
     b48:	df 91       	pop	r29
     b4a:	cf 91       	pop	r28
     b4c:	1f 91       	pop	r17
     b4e:	0f 91       	pop	r16
     b50:	ff 90       	pop	r15
     b52:	ef 90       	pop	r14
     b54:	df 90       	pop	r13
     b56:	08 95       	ret

00000b58 <OLED_print_menu_2>:


void OLED_print_menu_2(menu_item* parent){
     b58:	0f 93       	push	r16
     b5a:	1f 93       	push	r17
     b5c:	cf 93       	push	r28
     b5e:	df 93       	push	r29
     b60:	ec 01       	movw	r28, r24
	OLED_reset();
     b62:	0e 94 b1 04 	call	0x962	; 0x962 <OLED_reset>
	OLED_pos(0, 50);
     b66:	62 e3       	ldi	r22, 0x32	; 50
     b68:	80 e0       	ldi	r24, 0x00	; 0
     b6a:	0e 94 92 04 	call	0x924	; 0x924 <OLED_pos>
	OLED_print(parent->menu_name);
     b6e:	88 85       	ldd	r24, Y+8	; 0x08
     b70:	99 85       	ldd	r25, Y+9	; 0x09
     b72:	0e 94 ea 04 	call	0x9d4	; 0x9d4 <OLED_print>
	menu_item *current=parent->first_child;
     b76:	0a 80       	ldd	r0, Y+2	; 0x02
     b78:	db 81       	ldd	r29, Y+3	; 0x03
     b7a:	c0 2d       	mov	r28, r0
	int i=1;
     b7c:	01 e0       	ldi	r16, 0x01	; 1
     b7e:	10 e0       	ldi	r17, 0x00	; 0
	while(current!=NULL){
     b80:	0e c0       	rjmp	.+28     	; 0xb9e <OLED_print_menu_2+0x46>
		OLED_pos(i+1, 10);
     b82:	6a e0       	ldi	r22, 0x0A	; 10
     b84:	81 e0       	ldi	r24, 0x01	; 1
     b86:	80 0f       	add	r24, r16
     b88:	0e 94 92 04 	call	0x924	; 0x924 <OLED_pos>
		OLED_print(current->menu_name);
     b8c:	88 85       	ldd	r24, Y+8	; 0x08
     b8e:	99 85       	ldd	r25, Y+9	; 0x09
     b90:	0e 94 ea 04 	call	0x9d4	; 0x9d4 <OLED_print>
		current=current->next_sibling;
     b94:	0e 80       	ldd	r0, Y+6	; 0x06
     b96:	df 81       	ldd	r29, Y+7	; 0x07
     b98:	c0 2d       	mov	r28, r0
		i++;
     b9a:	0f 5f       	subi	r16, 0xFF	; 255
     b9c:	1f 4f       	sbci	r17, 0xFF	; 255
	OLED_reset();
	OLED_pos(0, 50);
	OLED_print(parent->menu_name);
	menu_item *current=parent->first_child;
	int i=1;
	while(current!=NULL){
     b9e:	20 97       	sbiw	r28, 0x00	; 0
     ba0:	81 f7       	brne	.-32     	; 0xb82 <OLED_print_menu_2+0x2a>
		OLED_pos(i+1, 10);
		OLED_print(current->menu_name);
		current=current->next_sibling;
		i++;
	}
}
     ba2:	df 91       	pop	r29
     ba4:	cf 91       	pop	r28
     ba6:	1f 91       	pop	r17
     ba8:	0f 91       	pop	r16
     baa:	08 95       	ret

00000bac <menu_init>:

void menu_init(IO *io){
     bac:	ef 92       	push	r14
     bae:	ff 92       	push	r15
     bb0:	0f 93       	push	r16
     bb2:	1f 93       	push	r17
     bb4:	cf 93       	push	r28
     bb6:	df 93       	push	r29
     bb8:	cd b7       	in	r28, 0x3d	; 61
     bba:	de b7       	in	r29, 0x3e	; 62
     bbc:	64 97       	sbiw	r28, 0x14	; 20
     bbe:	0f b6       	in	r0, 0x3f	; 63
     bc0:	f8 94       	cli
     bc2:	de bf       	out	0x3e, r29	; 62
     bc4:	0f be       	out	0x3f, r0	; 63
     bc6:	cd bf       	out	0x3d, r28	; 61
     bc8:	7c 01       	movw	r14, r24
	menu_item *menu = create_menu_item("Home", NULL); 
     bca:	60 e0       	ldi	r22, 0x00	; 0
     bcc:	70 e0       	ldi	r23, 0x00	; 0
     bce:	8c ea       	ldi	r24, 0xAC	; 172
     bd0:	91 e0       	ldi	r25, 0x01	; 1
     bd2:	0e 94 45 05 	call	0xa8a	; 0xa8a <create_menu_item>
     bd6:	8c 01       	movw	r16, r24
	
	const char* home_menu[] = {"Menu 1", "Menu 2", "Menu 3", "Menu 4", "Menu 5", " "};
     bd8:	8c e0       	ldi	r24, 0x0C	; 12
     bda:	e4 e1       	ldi	r30, 0x14	; 20
     bdc:	f1 e0       	ldi	r31, 0x01	; 1
     bde:	de 01       	movw	r26, r28
     be0:	11 96       	adiw	r26, 0x01	; 1
     be2:	01 90       	ld	r0, Z+
     be4:	0d 92       	st	X+, r0
     be6:	8a 95       	dec	r24
     be8:	e1 f7       	brne	.-8      	; 0xbe2 <menu_init+0x36>
	add_submenu_from_list(menu, home_menu, 5);
     bea:	45 e0       	ldi	r20, 0x05	; 5
     bec:	be 01       	movw	r22, r28
     bee:	6f 5f       	subi	r22, 0xFF	; 255
     bf0:	7f 4f       	sbci	r23, 0xFF	; 255
     bf2:	c8 01       	movw	r24, r16
     bf4:	0e 94 85 05 	call	0xb0a	; 0xb0a <add_submenu_from_list>
	io->current_node = menu->first_child;
     bf8:	d8 01       	movw	r26, r16
     bfa:	12 96       	adiw	r26, 0x02	; 2
     bfc:	8d 91       	ld	r24, X+
     bfe:	9c 91       	ld	r25, X
     c00:	13 97       	sbiw	r26, 0x03	; 3
     c02:	f7 01       	movw	r30, r14
     c04:	95 87       	std	Z+13, r25	; 0x0d
     c06:	84 87       	std	Z+12, r24	; 0x0c
	io->main_menu_node = menu->first_child;
     c08:	12 96       	adiw	r26, 0x02	; 2
     c0a:	8d 91       	ld	r24, X+
     c0c:	9c 91       	ld	r25, X
     c0e:	13 97       	sbiw	r26, 0x03	; 3
     c10:	95 8b       	std	Z+21, r25	; 0x15
     c12:	84 8b       	std	Z+20, r24	; 0x14
	
	const char* home_menu1[] = {"Play", "Back"};
     c14:	81 eb       	ldi	r24, 0xB1	; 177
     c16:	91 e0       	ldi	r25, 0x01	; 1
     c18:	9e 87       	std	Y+14, r25	; 0x0e
     c1a:	8d 87       	std	Y+13, r24	; 0x0d
     c1c:	86 eb       	ldi	r24, 0xB6	; 182
     c1e:	91 e0       	ldi	r25, 0x01	; 1
     c20:	98 8b       	std	Y+16, r25	; 0x10
     c22:	8f 87       	std	Y+15, r24	; 0x0f
	add_submenu_from_list(menu->first_child, home_menu1, 2);
     c24:	42 e0       	ldi	r20, 0x02	; 2
     c26:	be 01       	movw	r22, r28
     c28:	63 5f       	subi	r22, 0xF3	; 243
     c2a:	7f 4f       	sbci	r23, 0xFF	; 255
     c2c:	12 96       	adiw	r26, 0x02	; 2
     c2e:	8d 91       	ld	r24, X+
     c30:	9c 91       	ld	r25, X
     c32:	13 97       	sbiw	r26, 0x03	; 3
     c34:	0e 94 85 05 	call	0xb0a	; 0xb0a <add_submenu_from_list>
	
	const char* play_menu[] = {"Shoot"};
     c38:	8b eb       	ldi	r24, 0xBB	; 187
     c3a:	91 e0       	ldi	r25, 0x01	; 1
     c3c:	9a 8b       	std	Y+18, r25	; 0x12
     c3e:	89 8b       	std	Y+17, r24	; 0x11
	add_submenu_from_list(io->current_node->first_child, play_menu, 1);
     c40:	d7 01       	movw	r26, r14
     c42:	1c 96       	adiw	r26, 0x0c	; 12
     c44:	ed 91       	ld	r30, X+
     c46:	fc 91       	ld	r31, X
     c48:	1d 97       	sbiw	r26, 0x0d	; 13
     c4a:	41 e0       	ldi	r20, 0x01	; 1
     c4c:	be 01       	movw	r22, r28
     c4e:	6f 5e       	subi	r22, 0xEF	; 239
     c50:	7f 4f       	sbci	r23, 0xFF	; 255
     c52:	82 81       	ldd	r24, Z+2	; 0x02
     c54:	93 81       	ldd	r25, Z+3	; 0x03
     c56:	0e 94 85 05 	call	0xb0a	; 0xb0a <add_submenu_from_list>
	
	
	OLED_print_menu_2(menu);
     c5a:	c8 01       	movw	r24, r16
     c5c:	0e 94 ac 05 	call	0xb58	; 0xb58 <OLED_print_menu_2>
	
	menu_item *death_menu = create_menu_item("Game Over", NULL);
     c60:	60 e0       	ldi	r22, 0x00	; 0
     c62:	70 e0       	ldi	r23, 0x00	; 0
     c64:	81 ec       	ldi	r24, 0xC1	; 193
     c66:	91 e0       	ldi	r25, 0x01	; 1
     c68:	0e 94 45 05 	call	0xa8a	; 0xa8a <create_menu_item>
     c6c:	8c 01       	movw	r16, r24
	const char* game_over[] = {"Play again"};
     c6e:	8b ec       	ldi	r24, 0xCB	; 203
     c70:	91 e0       	ldi	r25, 0x01	; 1
     c72:	9c 8b       	std	Y+20, r25	; 0x14
     c74:	8b 8b       	std	Y+19, r24	; 0x13
	add_submenu_from_list(death_menu, game_over, 1);
     c76:	41 e0       	ldi	r20, 0x01	; 1
     c78:	be 01       	movw	r22, r28
     c7a:	6d 5e       	subi	r22, 0xED	; 237
     c7c:	7f 4f       	sbci	r23, 0xFF	; 255
     c7e:	c8 01       	movw	r24, r16
     c80:	0e 94 85 05 	call	0xb0a	; 0xb0a <add_submenu_from_list>
	io->death_node=death_menu->first_child;
     c84:	f8 01       	movw	r30, r16
     c86:	82 81       	ldd	r24, Z+2	; 0x02
     c88:	93 81       	ldd	r25, Z+3	; 0x03
     c8a:	d7 01       	movw	r26, r14
     c8c:	53 96       	adiw	r26, 0x13	; 19
     c8e:	9c 93       	st	X, r25
     c90:	8e 93       	st	-X, r24
     c92:	52 97       	sbiw	r26, 0x12	; 18
	
}
     c94:	64 96       	adiw	r28, 0x14	; 20
     c96:	0f b6       	in	r0, 0x3f	; 63
     c98:	f8 94       	cli
     c9a:	de bf       	out	0x3e, r29	; 62
     c9c:	0f be       	out	0x3f, r0	; 63
     c9e:	cd bf       	out	0x3d, r28	; 61
     ca0:	df 91       	pop	r29
     ca2:	cf 91       	pop	r28
     ca4:	1f 91       	pop	r17
     ca6:	0f 91       	pop	r16
     ca8:	ff 90       	pop	r15
     caa:	ef 90       	pop	r14
     cac:	08 95       	ret

00000cae <play_game>:

		
	}
}

void play_game(IO* io){
     cae:	cf 93       	push	r28
     cb0:	df 93       	push	r29
	if(io->button_state){
     cb2:	fc 01       	movw	r30, r24
     cb4:	21 85       	ldd	r18, Z+9	; 0x09
     cb6:	22 23       	and	r18, r18
     cb8:	71 f0       	breq	.+28     	; 0xcd6 <play_game+0x28>
     cba:	ec 01       	movw	r28, r24
		if(strcmp(io->current_node->menu_name, "Play") == 0){
     cbc:	04 84       	ldd	r0, Z+12	; 0x0c
     cbe:	f5 85       	ldd	r31, Z+13	; 0x0d
     cc0:	e0 2d       	mov	r30, r0
     cc2:	61 eb       	ldi	r22, 0xB1	; 177
     cc4:	71 e0       	ldi	r23, 0x01	; 1
     cc6:	80 85       	ldd	r24, Z+8	; 0x08
     cc8:	91 85       	ldd	r25, Z+9	; 0x09
     cca:	0e 94 43 09 	call	0x1286	; 0x1286 <strcmp>
     cce:	89 2b       	or	r24, r25
     cd0:	11 f4       	brne	.+4      	; 0xcd6 <play_game+0x28>
			io->game_active = true;
     cd2:	81 e0       	ldi	r24, 0x01	; 1
     cd4:	89 8b       	std	Y+17, r24	; 0x11
		}
	}
}
     cd6:	df 91       	pop	r29
     cd8:	cf 91       	pop	r28
     cda:	08 95       	ret

00000cdc <button_clicked>:
	add_submenu_from_list(death_menu, game_over, 1);
	io->death_node=death_menu->first_child;
	
}

void button_clicked(IO* io){
     cdc:	0f 93       	push	r16
     cde:	1f 93       	push	r17
     ce0:	cf 93       	push	r28
     ce2:	df 93       	push	r29
	if(io->button_used == false){
     ce4:	dc 01       	movw	r26, r24
     ce6:	1e 96       	adiw	r26, 0x0e	; 14
     ce8:	2c 91       	ld	r18, X
     cea:	1e 97       	sbiw	r26, 0x0e	; 14
     cec:	21 11       	cpse	r18, r1
     cee:	04 c0       	rjmp	.+8      	; 0xcf8 <button_clicked+0x1c>
		io->button_used = true;
     cf0:	21 e0       	ldi	r18, 0x01	; 1
     cf2:	1e 96       	adiw	r26, 0x0e	; 14
     cf4:	2c 93       	st	X, r18
		return;
     cf6:	39 c0       	rjmp	.+114    	; 0xd6a <button_clicked+0x8e>
     cf8:	ec 01       	movw	r28, r24
	}
	
	play_game(io);
     cfa:	0e 94 57 06 	call	0xcae	; 0xcae <play_game>
	
	if(io->button_state){
     cfe:	89 85       	ldd	r24, Y+9	; 0x09
     d00:	88 23       	and	r24, r24
     d02:	99 f1       	breq	.+102    	; 0xd6a <button_clicked+0x8e>
		if(strcmp(io->current_node->menu_name, "Back") == 0){
     d04:	0c 85       	ldd	r16, Y+12	; 0x0c
     d06:	1d 85       	ldd	r17, Y+13	; 0x0d
     d08:	66 eb       	ldi	r22, 0xB6	; 182
     d0a:	71 e0       	ldi	r23, 0x01	; 1
     d0c:	f8 01       	movw	r30, r16
     d0e:	80 85       	ldd	r24, Z+8	; 0x08
     d10:	91 85       	ldd	r25, Z+9	; 0x09
     d12:	0e 94 43 09 	call	0x1286	; 0x1286 <strcmp>
     d16:	89 2b       	or	r24, r25
     d18:	49 f4       	brne	.+18     	; 0xd2c <button_clicked+0x50>
			io->current_node = io->current_node->parent;
     d1a:	d8 01       	movw	r26, r16
     d1c:	ed 91       	ld	r30, X+
     d1e:	fc 91       	ld	r31, X
     d20:	fd 87       	std	Y+13, r31	; 0x0d
     d22:	ec 87       	std	Y+12, r30	; 0x0c
			io->current_node = io->current_node->parent;
     d24:	80 81       	ld	r24, Z
     d26:	91 81       	ldd	r25, Z+1	; 0x01
     d28:	9d 87       	std	Y+13, r25	; 0x0d
     d2a:	8c 87       	std	Y+12, r24	; 0x0c
		}
		
		if(strcmp(io->current_node->menu_name, "Play again") == 0){
     d2c:	ec 85       	ldd	r30, Y+12	; 0x0c
     d2e:	fd 85       	ldd	r31, Y+13	; 0x0d
     d30:	6b ec       	ldi	r22, 0xCB	; 203
     d32:	71 e0       	ldi	r23, 0x01	; 1
     d34:	80 85       	ldd	r24, Z+8	; 0x08
     d36:	91 85       	ldd	r25, Z+9	; 0x09
     d38:	0e 94 43 09 	call	0x1286	; 0x1286 <strcmp>
     d3c:	89 2b       	or	r24, r25
     d3e:	21 f4       	brne	.+8      	; 0xd48 <button_clicked+0x6c>
			io->current_node = io->main_menu_node;
     d40:	8c 89       	ldd	r24, Y+20	; 0x14
     d42:	9d 89       	ldd	r25, Y+21	; 0x15
     d44:	9d 87       	std	Y+13, r25	; 0x0d
     d46:	8c 87       	std	Y+12, r24	; 0x0c
		}
		
		if(io->current_node->first_child != NULL ){
     d48:	8c 85       	ldd	r24, Y+12	; 0x0c
     d4a:	9d 85       	ldd	r25, Y+13	; 0x0d
     d4c:	fc 01       	movw	r30, r24
     d4e:	22 81       	ldd	r18, Z+2	; 0x02
     d50:	33 81       	ldd	r19, Z+3	; 0x03
     d52:	23 2b       	or	r18, r19
     d54:	51 f0       	breq	.+20     	; 0xd6a <button_clicked+0x8e>
			OLED_print_menu_2(io->current_node);
     d56:	0e 94 ac 05 	call	0xb58	; 0xb58 <OLED_print_menu_2>
			io->current_node = io->current_node->first_child;
     d5a:	ec 85       	ldd	r30, Y+12	; 0x0c
     d5c:	fd 85       	ldd	r31, Y+13	; 0x0d
     d5e:	82 81       	ldd	r24, Z+2	; 0x02
     d60:	93 81       	ldd	r25, Z+3	; 0x03
     d62:	9d 87       	std	Y+13, r25	; 0x0d
     d64:	8c 87       	std	Y+12, r24	; 0x0c
			io->menu_ptr = 2;
     d66:	82 e0       	ldi	r24, 0x02	; 2
     d68:	8a 87       	std	Y+10, r24	; 0x0a
		}

		
	}
}
     d6a:	df 91       	pop	r29
     d6c:	cf 91       	pop	r28
     d6e:	1f 91       	pop	r17
     d70:	0f 91       	pop	r16
     d72:	08 95       	ret

00000d74 <set_states>:
		}
		io->joy_dir = NEUTRAL;
	}
}

void set_states(IO* io){
     d74:	cf 93       	push	r28
     d76:	df 93       	push	r29
     d78:	ec 01       	movw	r28, r24
	xmem_write(16, adc_adr, BASE_ADDRESS);
     d7a:	40 e0       	ldi	r20, 0x00	; 0
     d7c:	50 e1       	ldi	r21, 0x10	; 16
     d7e:	60 e0       	ldi	r22, 0x00	; 0
     d80:	74 e1       	ldi	r23, 0x14	; 20
     d82:	80 e1       	ldi	r24, 0x10	; 16
     d84:	0e 94 fe 07 	call	0xffc	; 0xffc <xmem_write>
	io->joy_x = convert_x(io, xmem_read(adc_adr, BASE_ADDRESS));
     d88:	60 e0       	ldi	r22, 0x00	; 0
     d8a:	70 e1       	ldi	r23, 0x10	; 16
     d8c:	80 e0       	ldi	r24, 0x00	; 0
     d8e:	94 e1       	ldi	r25, 0x14	; 20
     d90:	0e 94 03 08 	call	0x1006	; 0x1006 <xmem_read>
     d94:	68 2f       	mov	r22, r24
     d96:	70 e0       	ldi	r23, 0x00	; 0
     d98:	ce 01       	movw	r24, r28
     d9a:	0e 94 fd 02 	call	0x5fa	; 0x5fa <convert_x>
     d9e:	99 83       	std	Y+1, r25	; 0x01
     da0:	88 83       	st	Y, r24
	io->joy_y = convert_y(io, xmem_read(adc_adr, BASE_ADDRESS));
     da2:	60 e0       	ldi	r22, 0x00	; 0
     da4:	70 e1       	ldi	r23, 0x10	; 16
     da6:	80 e0       	ldi	r24, 0x00	; 0
     da8:	94 e1       	ldi	r25, 0x14	; 20
     daa:	0e 94 03 08 	call	0x1006	; 0x1006 <xmem_read>
     dae:	68 2f       	mov	r22, r24
     db0:	70 e0       	ldi	r23, 0x00	; 0
     db2:	ce 01       	movw	r24, r28
     db4:	0e 94 12 03 	call	0x624	; 0x624 <convert_y>
     db8:	9b 83       	std	Y+3, r25	; 0x03
     dba:	8a 83       	std	Y+2, r24	; 0x02
	io->slider_l = xmem_read(adc_adr,BASE_ADDRESS);
     dbc:	60 e0       	ldi	r22, 0x00	; 0
     dbe:	70 e1       	ldi	r23, 0x10	; 16
     dc0:	80 e0       	ldi	r24, 0x00	; 0
     dc2:	94 e1       	ldi	r25, 0x14	; 20
     dc4:	0e 94 03 08 	call	0x1006	; 0x1006 <xmem_read>
     dc8:	90 e0       	ldi	r25, 0x00	; 0
     dca:	9d 83       	std	Y+5, r25	; 0x05
     dcc:	8c 83       	std	Y+4, r24	; 0x04
	io->slider_r = xmem_read(adc_adr,BASE_ADDRESS);
     dce:	60 e0       	ldi	r22, 0x00	; 0
     dd0:	70 e1       	ldi	r23, 0x10	; 16
     dd2:	80 e0       	ldi	r24, 0x00	; 0
     dd4:	94 e1       	ldi	r25, 0x14	; 20
     dd6:	0e 94 03 08 	call	0x1006	; 0x1006 <xmem_read>
     dda:	90 e0       	ldi	r25, 0x00	; 0
     ddc:	9f 83       	std	Y+7, r25	; 0x07
     dde:	8e 83       	std	Y+6, r24	; 0x06
	find_joy_dir(io);
     de0:	ce 01       	movw	r24, r28
     de2:	0e 94 27 03 	call	0x64e	; 0x64e <find_joy_dir>
	io->button_state = read_button(io);
     de6:	ce 01       	movw	r24, r28
     de8:	0e 94 cc 03 	call	0x798	; 0x798 <read_button>
     dec:	89 87       	std	Y+9, r24	; 0x09
	set_menu_ptr(io);
     dee:	ce 01       	movw	r24, r28
     df0:	0e 94 05 05 	call	0xa0a	; 0xa0a <set_menu_ptr>
	button_clicked(io);
     df4:	ce 01       	movw	r24, r28
     df6:	0e 94 6e 06 	call	0xcdc	; 0xcdc <button_clicked>
}
     dfa:	df 91       	pop	r29
     dfc:	cf 91       	pop	r28
     dfe:	08 95       	ret

00000e00 <send_joy_pos>:
			io->game_active = true;
		}
	}
}

can_message send_joy_pos(IO* io){
     e00:	ff 92       	push	r15
     e02:	0f 93       	push	r16
     e04:	1f 93       	push	r17
     e06:	cf 93       	push	r28
     e08:	df 93       	push	r29
     e0a:	ec 01       	movw	r28, r24
     e0c:	8b 01       	movw	r16, r22
	char x_position = get_joy_x(io);
     e0e:	cb 01       	movw	r24, r22
     e10:	0e 94 c4 03 	call	0x788	; 0x788 <get_joy_x>
     e14:	f8 2e       	mov	r15, r24
	if(x_position > 249){
     e16:	89 ef       	ldi	r24, 0xF9	; 249
     e18:	8f 15       	cp	r24, r15
     e1a:	08 f4       	brcc	.+2      	; 0xe1e <send_joy_pos+0x1e>
		x_position = 0;
     e1c:	f1 2c       	mov	r15, r1
	}
	char y_position = get_joy_y(io);
     e1e:	c8 01       	movw	r24, r16
     e20:	0e 94 c8 03 	call	0x790	; 0x790 <get_joy_y>
	if(y_position > 249){
     e24:	8a 3f       	cpi	r24, 0xFA	; 250
     e26:	08 f0       	brcs	.+2      	; 0xe2a <send_joy_pos+0x2a>
		y_position = 0;
     e28:	80 e0       	ldi	r24, 0x00	; 0
	}
	
	can_message msg = {0x7ff, 0x03, {x_position, y_position, io->button_state}};
     e2a:	9b e0       	ldi	r25, 0x0B	; 11
     e2c:	fe 01       	movw	r30, r28
     e2e:	11 92       	st	Z+, r1
     e30:	9a 95       	dec	r25
     e32:	e9 f7       	brne	.-6      	; 0xe2e <send_joy_pos+0x2e>
     e34:	2f ef       	ldi	r18, 0xFF	; 255
     e36:	37 e0       	ldi	r19, 0x07	; 7
     e38:	39 83       	std	Y+1, r19	; 0x01
     e3a:	28 83       	st	Y, r18
     e3c:	93 e0       	ldi	r25, 0x03	; 3
     e3e:	9a 83       	std	Y+2, r25	; 0x02
     e40:	fb 82       	std	Y+3, r15	; 0x03
     e42:	8c 83       	std	Y+4, r24	; 0x04
     e44:	f8 01       	movw	r30, r16
     e46:	81 85       	ldd	r24, Z+9	; 0x09
     e48:	8d 83       	std	Y+5, r24	; 0x05
	return msg;
     e4a:	ce 01       	movw	r24, r28
     e4c:	df 91       	pop	r29
     e4e:	cf 91       	pop	r28
     e50:	1f 91       	pop	r17
     e52:	0f 91       	pop	r16
     e54:	ff 90       	pop	r15
     e56:	08 95       	ret

00000e58 <pwm_init>:
	TCCR3B = (0<<WGM33) | (1<<WGM32) |(1<<CS30);
	OCR3B = 0;
};
		
void pwm_init(void) {
	DDRD |=(1<<DDD4);
     e58:	81 b3       	in	r24, 0x11	; 17
     e5a:	80 61       	ori	r24, 0x10	; 16
     e5c:	81 bb       	out	0x11, r24	; 17
	TCCR3A = (0<<COM3A0) | (1<<COM3A1) | (0<<WGM31) | (1<<WGM30);
     e5e:	81 e8       	ldi	r24, 0x81	; 129
     e60:	80 93 8b 00 	sts	0x008B, r24	; 0x80008b <__TEXT_REGION_LENGTH__+0x7fc08b>
	TCCR3B = (0<<ICES3) | (1<<WGM32) |(1<<CS30);
     e64:	89 e0       	ldi	r24, 0x09	; 9
     e66:	80 93 8a 00 	sts	0x008A, r24	; 0x80008a <__TEXT_REGION_LENGTH__+0x7fc08a>
	OCR3B = 0;
     e6a:	10 92 85 00 	sts	0x0085, r1	; 0x800085 <__TEXT_REGION_LENGTH__+0x7fc085>
     e6e:	10 92 84 00 	sts	0x0084, r1	; 0x800084 <__TEXT_REGION_LENGTH__+0x7fc084>
     e72:	08 95       	ret

00000e74 <main>:
};

int main(void)
{
     e74:	cf 93       	push	r28
     e76:	df 93       	push	r29
     e78:	cd b7       	in	r28, 0x3d	; 61
     e7a:	de b7       	in	r29, 0x3e	; 62
     e7c:	e7 97       	sbiw	r28, 0x37	; 55
     e7e:	0f b6       	in	r0, 0x3f	; 63
     e80:	f8 94       	cli
     e82:	de bf       	out	0x3e, r29	; 62
     e84:	0f be       	out	0x3f, r0	; 63
     e86:	cd bf       	out	0x3d, r28	; 61
	pwm_init();
     e88:	0e 94 2c 07 	call	0xe58	; 0xe58 <pwm_init>
	USART_Init(MYUBRR);
     e8c:	8f e1       	ldi	r24, 0x1F	; 31
     e8e:	90 e0       	ldi	r25, 0x00	; 0
     e90:	0e 94 d4 07 	call	0xfa8	; 0xfa8 <USART_Init>

	init_printf();
     e94:	0e 94 ed 07 	call	0xfda	; 0xfda <init_printf>
	xmem_init();
     e98:	0e 94 f4 07 	call	0xfe8	; 0xfe8 <xmem_init>
	oled_init();
     e9c:	0e 94 d8 03 	call	0x7b0	; 0x7b0 <oled_init>
	IO io;
	io_init(&io);
     ea0:	ce 01       	movw	r24, r28
     ea2:	01 96       	adiw	r24, 0x01	; 1
     ea4:	0e 94 e3 02 	call	0x5c6	; 0x5c6 <io_init>
	OLED_reset();
     ea8:	0e 94 b1 04 	call	0x962	; 0x962 <OLED_reset>
	
	
	menu_init(&io);
     eac:	ce 01       	movw	r24, r28
     eae:	01 96       	adiw	r24, 0x01	; 1
     eb0:	0e 94 d6 05 	call	0xbac	; 0xbac <menu_init>
	SPI_master_init();
     eb4:	0e 94 c8 07 	call	0xf90	; 0xf90 <SPI_master_init>
	can_cntrl_config();
     eb8:	0e 94 0f 02 	call	0x41e	; 0x41e <can_cntrl_config>
		
	can_message msg = {0x7ff, 0x02, {0xa0, 0x54}};
	can_message joy_msg={};
     ebc:	fe 01       	movw	r30, r28
     ebe:	77 96       	adiw	r30, 0x17	; 23
     ec0:	8b e0       	ldi	r24, 0x0B	; 11
     ec2:	df 01       	movw	r26, r30
     ec4:	1d 92       	st	X+, r1
     ec6:	8a 95       	dec	r24
     ec8:	e9 f7       	brne	.-6      	; 0xec4 <main+0x50>
	can_message received={0x000,0x01,{0x0}};
	
	can_cntrl_write(0x2C, can_cntrl_read(0x2C) & ~0x01);
     eca:	8c e2       	ldi	r24, 0x2C	; 44
     ecc:	0e 94 d3 01 	call	0x3a6	; 0x3a6 <can_cntrl_read>
     ed0:	68 2f       	mov	r22, r24
     ed2:	6e 7f       	andi	r22, 0xFE	; 254
     ed4:	8c e2       	ldi	r24, 0x2C	; 44
     ed6:	0e 94 e7 01 	call	0x3ce	; 0x3ce <can_cntrl_write>
	
    while (1) 
    {
		set_states(&io);
     eda:	ce 01       	movw	r24, r28
     edc:	01 96       	adiw	r24, 0x01	; 1
     ede:	0e 94 ba 06 	call	0xd74	; 0xd74 <set_states>
		get_states(&io);
     ee2:	ce 01       	movw	r24, r28
     ee4:	01 96       	adiw	r24, 0x01	; 1
     ee6:	0e 94 6b 03 	call	0x6d6	; 0x6d6 <get_states>
		
		received = can_message_read(0);
     eea:	60 e0       	ldi	r22, 0x00	; 0
     eec:	70 e0       	ldi	r23, 0x00	; 0
     eee:	ce 01       	movw	r24, r28
     ef0:	82 96       	adiw	r24, 0x22	; 34
     ef2:	0e 94 68 02 	call	0x4d0	; 0x4d0 <can_message_read>
		printf("Received id: %x\n", received.id);
     ef6:	0a a1       	ldd	r16, Y+34	; 0x22
     ef8:	1b a1       	ldd	r17, Y+35	; 0x23
     efa:	1f 93       	push	r17
     efc:	0f 93       	push	r16
     efe:	89 ef       	ldi	r24, 0xF9	; 249
     f00:	91 e0       	ldi	r25, 0x01	; 1
     f02:	9f 93       	push	r25
     f04:	8f 93       	push	r24
     f06:	0e 94 53 09 	call	0x12a6	; 0x12a6 <printf>
		if(received.id == 0x001){
     f0a:	0f 90       	pop	r0
     f0c:	0f 90       	pop	r0
     f0e:	0f 90       	pop	r0
     f10:	0f 90       	pop	r0
     f12:	01 30       	cpi	r16, 0x01	; 1
     f14:	11 05       	cpc	r17, r1
     f16:	79 f4       	brne	.+30     	; 0xf36 <main+0xc2>
			printf("Game over");
     f18:	8a e0       	ldi	r24, 0x0A	; 10
     f1a:	92 e0       	ldi	r25, 0x02	; 2
     f1c:	9f 93       	push	r25
     f1e:	8f 93       	push	r24
     f20:	0e 94 53 09 	call	0x12a6	; 0x12a6 <printf>
			io.game_active = false;
     f24:	1a 8a       	std	Y+18, r1	; 0x12
			io.current_node = io.death_node;
     f26:	8b 89       	ldd	r24, Y+19	; 0x13
     f28:	9c 89       	ldd	r25, Y+20	; 0x14
     f2a:	9e 87       	std	Y+14, r25	; 0x0e
     f2c:	8d 87       	std	Y+13, r24	; 0x0d
			OLED_print_menu_2(io.current_node);
     f2e:	0e 94 ac 05 	call	0xb58	; 0xb58 <OLED_print_menu_2>
     f32:	0f 90       	pop	r0
     f34:	0f 90       	pop	r0
		} 
		printf("game active %d\n", io.game_active);
     f36:	8a 89       	ldd	r24, Y+18	; 0x12
     f38:	1f 92       	push	r1
     f3a:	8f 93       	push	r24
     f3c:	84 e1       	ldi	r24, 0x14	; 20
     f3e:	92 e0       	ldi	r25, 0x02	; 2
     f40:	9f 93       	push	r25
     f42:	8f 93       	push	r24
     f44:	0e 94 53 09 	call	0x12a6	; 0x12a6 <printf>
		
		if(io.game_active){
     f48:	8a 89       	ldd	r24, Y+18	; 0x12
     f4a:	0f 90       	pop	r0
     f4c:	0f 90       	pop	r0
     f4e:	0f 90       	pop	r0
     f50:	0f 90       	pop	r0
     f52:	88 23       	and	r24, r24
     f54:	11 f2       	breq	.-124    	; 0xeda <main+0x66>
			joy_msg=send_joy_pos(&io);
     f56:	be 01       	movw	r22, r28
     f58:	6f 5f       	subi	r22, 0xFF	; 255
     f5a:	7f 4f       	sbci	r23, 0xFF	; 255
     f5c:	ce 01       	movw	r24, r28
     f5e:	8d 96       	adiw	r24, 0x2d	; 45
     f60:	0e 94 00 07 	call	0xe00	; 0xe00 <send_joy_pos>
     f64:	8b e0       	ldi	r24, 0x0B	; 11
     f66:	fe 01       	movw	r30, r28
     f68:	bd 96       	adiw	r30, 0x2d	; 45
     f6a:	de 01       	movw	r26, r28
     f6c:	57 96       	adiw	r26, 0x17	; 23
     f6e:	01 90       	ld	r0, Z+
     f70:	0d 92       	st	X+, r0
     f72:	8a 95       	dec	r24
     f74:	e1 f7       	brne	.-8      	; 0xf6e <main+0xfa>
			can_message_send(&joy_msg);
     f76:	ce 01       	movw	r24, r28
     f78:	47 96       	adiw	r24, 0x17	; 23
     f7a:	0e 94 30 02 	call	0x460	; 0x460 <can_message_send>
     f7e:	ad cf       	rjmp	.-166    	; 0xeda <main+0x66>

00000f80 <SPI_SS_low>:
#include "SPI.h"


void SPI_SS_low(void) {
	PORTB &= ~(1 << PB4);  // Dra SS/CS lav for  velge slave
     f80:	88 b3       	in	r24, 0x18	; 24
     f82:	8f 7e       	andi	r24, 0xEF	; 239
     f84:	88 bb       	out	0x18, r24	; 24
     f86:	08 95       	ret

00000f88 <SPI_SS_high>:
}

void SPI_SS_high(void) {
	PORTB |= (1 << PB4);   // Dra SS/CS hy for  deselecte slave
     f88:	88 b3       	in	r24, 0x18	; 24
     f8a:	80 61       	ori	r24, 0x10	; 16
     f8c:	88 bb       	out	0x18, r24	; 24
     f8e:	08 95       	ret

00000f90 <SPI_master_init>:
}

//SPI functions
void SPI_master_init(void){
	DDRB = (1<<PB5)|(1<<PB7)|(1<<PB4); //Set MOSI and SCK output, all others input
     f90:	80 eb       	ldi	r24, 0xB0	; 176
     f92:	87 bb       	out	0x17, r24	; 23
	SPI_SS_high();
     f94:	0e 94 c4 07 	call	0xf88	; 0xf88 <SPI_SS_high>
	SPCR = (1<<SPE)|(1<<MSTR)|(1<<SPR0); //Enable SPI, Master, set clock rate fck/16
     f98:	81 e5       	ldi	r24, 0x51	; 81
     f9a:	8d b9       	out	0x0d, r24	; 13
     f9c:	08 95       	ret

00000f9e <SPI_MasterTransmit>:
}

uint8_t SPI_MasterTransmit(char cData){
	SPDR = cData; //Start transmission
     f9e:	8f b9       	out	0x0f, r24	; 15
	while(!(SPSR & (1<<SPIF))){
     fa0:	77 9b       	sbis	0x0e, 7	; 14
     fa2:	fe cf       	rjmp	.-4      	; 0xfa0 <SPI_MasterTransmit+0x2>
		} // Wait for transmission complete
	return SPDR;
     fa4:	8f b1       	in	r24, 0x0f	; 15
}
     fa6:	08 95       	ret

00000fa8 <USART_Init>:

unsigned char USART_Receive( void )
{
	while ( !(UCSR0A & (1<<RXC0)) );
	return UDR0;
}
     fa8:	90 bd       	out	0x20, r25	; 32
     faa:	89 b9       	out	0x09, r24	; 9
     fac:	88 e1       	ldi	r24, 0x18	; 24
     fae:	8a b9       	out	0x0a, r24	; 10
     fb0:	8e e8       	ldi	r24, 0x8E	; 142
     fb2:	80 bd       	out	0x20, r24	; 32
     fb4:	08 95       	ret

00000fb6 <USART_Transmit>:
     fb6:	5d 9b       	sbis	0x0b, 5	; 11
     fb8:	fe cf       	rjmp	.-4      	; 0xfb6 <USART_Transmit>
     fba:	8c b9       	out	0x0c, r24	; 12
     fbc:	08 95       	ret

00000fbe <uart_putchar>:
     fbe:	cf 93       	push	r28
     fc0:	c8 2f       	mov	r28, r24
     fc2:	8a 30       	cpi	r24, 0x0A	; 10
     fc4:	19 f4       	brne	.+6      	; 0xfcc <uart_putchar+0xe>
     fc6:	8d e0       	ldi	r24, 0x0D	; 13
     fc8:	0e 94 db 07 	call	0xfb6	; 0xfb6 <USART_Transmit>
     fcc:	8c 2f       	mov	r24, r28
     fce:	0e 94 db 07 	call	0xfb6	; 0xfb6 <USART_Transmit>
     fd2:	80 e0       	ldi	r24, 0x00	; 0
     fd4:	90 e0       	ldi	r25, 0x00	; 0
     fd6:	cf 91       	pop	r28
     fd8:	08 95       	ret

00000fda <init_printf>:


void init_printf(void)
{
	static FILE uart_stdout = FDEV_SETUP_STREAM(uart_putchar, NULL, _FDEV_SETUP_WRITE);
	stdout = &uart_stdout;  // Set stdout to use uart_putchar
     fda:	86 e0       	ldi	r24, 0x06	; 6
     fdc:	91 e0       	ldi	r25, 0x01	; 1
     fde:	90 93 2b 02 	sts	0x022B, r25	; 0x80022b <__iob+0x3>
     fe2:	80 93 2a 02 	sts	0x022A, r24	; 0x80022a <__iob+0x2>
     fe6:	08 95       	ret

00000fe8 <xmem_init>:
#include "xmem.h"
#include <avr/io.h>

void xmem_init ( void ){
	MCUCR |= (1 << SRE ); // enable XMEM
     fe8:	85 b7       	in	r24, 0x35	; 53
     fea:	80 68       	ori	r24, 0x80	; 128
     fec:	85 bf       	out	0x35, r24	; 53
	
	SFIOR &= ~(1 << XMM0 | 1 << XMM1 ); // mask bits / reduce bus width
     fee:	80 b7       	in	r24, 0x30	; 48
     ff0:	87 7e       	andi	r24, 0xE7	; 231
     ff2:	80 bf       	out	0x30, r24	; 48
	SFIOR |= (1 << XMM2 );
     ff4:	80 b7       	in	r24, 0x30	; 48
     ff6:	80 62       	ori	r24, 0x20	; 32
     ff8:	80 bf       	out	0x30, r24	; 48
     ffa:	08 95       	ret

00000ffc <xmem_write>:
}

void xmem_write ( uint8_t data , uint16_t addr, uint16_t base_address){
	volatile char * ext_mem = ( char *) base_address ;
	ext_mem [ addr ]= data ;
     ffc:	fa 01       	movw	r30, r20
     ffe:	e6 0f       	add	r30, r22
    1000:	f7 1f       	adc	r31, r23
    1002:	80 83       	st	Z, r24
    1004:	08 95       	ret

00001006 <xmem_read>:
}

uint8_t xmem_read ( uint16_t addr, uint16_t base_address){
	volatile char * ext_mem = ( char *) base_address;
	uint8_t ret_val = ext_mem [ addr ];
    1006:	86 0f       	add	r24, r22
    1008:	97 1f       	adc	r25, r23
    100a:	fc 01       	movw	r30, r24
    100c:	80 81       	ld	r24, Z
	return ret_val ;
    100e:	08 95       	ret

00001010 <malloc>:
    1010:	0f 93       	push	r16
    1012:	1f 93       	push	r17
    1014:	cf 93       	push	r28
    1016:	df 93       	push	r29
    1018:	82 30       	cpi	r24, 0x02	; 2
    101a:	91 05       	cpc	r25, r1
    101c:	10 f4       	brcc	.+4      	; 0x1022 <malloc+0x12>
    101e:	82 e0       	ldi	r24, 0x02	; 2
    1020:	90 e0       	ldi	r25, 0x00	; 0
    1022:	e0 91 26 02 	lds	r30, 0x0226	; 0x800226 <__flp>
    1026:	f0 91 27 02 	lds	r31, 0x0227	; 0x800227 <__flp+0x1>
    102a:	20 e0       	ldi	r18, 0x00	; 0
    102c:	30 e0       	ldi	r19, 0x00	; 0
    102e:	a0 e0       	ldi	r26, 0x00	; 0
    1030:	b0 e0       	ldi	r27, 0x00	; 0
    1032:	30 97       	sbiw	r30, 0x00	; 0
    1034:	19 f1       	breq	.+70     	; 0x107c <malloc+0x6c>
    1036:	40 81       	ld	r20, Z
    1038:	51 81       	ldd	r21, Z+1	; 0x01
    103a:	02 81       	ldd	r16, Z+2	; 0x02
    103c:	13 81       	ldd	r17, Z+3	; 0x03
    103e:	48 17       	cp	r20, r24
    1040:	59 07       	cpc	r21, r25
    1042:	c8 f0       	brcs	.+50     	; 0x1076 <malloc+0x66>
    1044:	84 17       	cp	r24, r20
    1046:	95 07       	cpc	r25, r21
    1048:	69 f4       	brne	.+26     	; 0x1064 <malloc+0x54>
    104a:	10 97       	sbiw	r26, 0x00	; 0
    104c:	31 f0       	breq	.+12     	; 0x105a <malloc+0x4a>
    104e:	12 96       	adiw	r26, 0x02	; 2
    1050:	0c 93       	st	X, r16
    1052:	12 97       	sbiw	r26, 0x02	; 2
    1054:	13 96       	adiw	r26, 0x03	; 3
    1056:	1c 93       	st	X, r17
    1058:	27 c0       	rjmp	.+78     	; 0x10a8 <malloc+0x98>
    105a:	00 93 26 02 	sts	0x0226, r16	; 0x800226 <__flp>
    105e:	10 93 27 02 	sts	0x0227, r17	; 0x800227 <__flp+0x1>
    1062:	22 c0       	rjmp	.+68     	; 0x10a8 <malloc+0x98>
    1064:	21 15       	cp	r18, r1
    1066:	31 05       	cpc	r19, r1
    1068:	19 f0       	breq	.+6      	; 0x1070 <malloc+0x60>
    106a:	42 17       	cp	r20, r18
    106c:	53 07       	cpc	r21, r19
    106e:	18 f4       	brcc	.+6      	; 0x1076 <malloc+0x66>
    1070:	9a 01       	movw	r18, r20
    1072:	bd 01       	movw	r22, r26
    1074:	ef 01       	movw	r28, r30
    1076:	df 01       	movw	r26, r30
    1078:	f8 01       	movw	r30, r16
    107a:	db cf       	rjmp	.-74     	; 0x1032 <malloc+0x22>
    107c:	21 15       	cp	r18, r1
    107e:	31 05       	cpc	r19, r1
    1080:	f9 f0       	breq	.+62     	; 0x10c0 <malloc+0xb0>
    1082:	28 1b       	sub	r18, r24
    1084:	39 0b       	sbc	r19, r25
    1086:	24 30       	cpi	r18, 0x04	; 4
    1088:	31 05       	cpc	r19, r1
    108a:	80 f4       	brcc	.+32     	; 0x10ac <malloc+0x9c>
    108c:	8a 81       	ldd	r24, Y+2	; 0x02
    108e:	9b 81       	ldd	r25, Y+3	; 0x03
    1090:	61 15       	cp	r22, r1
    1092:	71 05       	cpc	r23, r1
    1094:	21 f0       	breq	.+8      	; 0x109e <malloc+0x8e>
    1096:	fb 01       	movw	r30, r22
    1098:	93 83       	std	Z+3, r25	; 0x03
    109a:	82 83       	std	Z+2, r24	; 0x02
    109c:	04 c0       	rjmp	.+8      	; 0x10a6 <malloc+0x96>
    109e:	90 93 27 02 	sts	0x0227, r25	; 0x800227 <__flp+0x1>
    10a2:	80 93 26 02 	sts	0x0226, r24	; 0x800226 <__flp>
    10a6:	fe 01       	movw	r30, r28
    10a8:	32 96       	adiw	r30, 0x02	; 2
    10aa:	44 c0       	rjmp	.+136    	; 0x1134 <malloc+0x124>
    10ac:	fe 01       	movw	r30, r28
    10ae:	e2 0f       	add	r30, r18
    10b0:	f3 1f       	adc	r31, r19
    10b2:	81 93       	st	Z+, r24
    10b4:	91 93       	st	Z+, r25
    10b6:	22 50       	subi	r18, 0x02	; 2
    10b8:	31 09       	sbc	r19, r1
    10ba:	39 83       	std	Y+1, r19	; 0x01
    10bc:	28 83       	st	Y, r18
    10be:	3a c0       	rjmp	.+116    	; 0x1134 <malloc+0x124>
    10c0:	20 91 24 02 	lds	r18, 0x0224	; 0x800224 <__data_end>
    10c4:	30 91 25 02 	lds	r19, 0x0225	; 0x800225 <__data_end+0x1>
    10c8:	23 2b       	or	r18, r19
    10ca:	41 f4       	brne	.+16     	; 0x10dc <malloc+0xcc>
    10cc:	20 91 02 01 	lds	r18, 0x0102	; 0x800102 <__malloc_heap_start>
    10d0:	30 91 03 01 	lds	r19, 0x0103	; 0x800103 <__malloc_heap_start+0x1>
    10d4:	30 93 25 02 	sts	0x0225, r19	; 0x800225 <__data_end+0x1>
    10d8:	20 93 24 02 	sts	0x0224, r18	; 0x800224 <__data_end>
    10dc:	20 91 00 01 	lds	r18, 0x0100	; 0x800100 <__DATA_REGION_ORIGIN__>
    10e0:	30 91 01 01 	lds	r19, 0x0101	; 0x800101 <__DATA_REGION_ORIGIN__+0x1>
    10e4:	21 15       	cp	r18, r1
    10e6:	31 05       	cpc	r19, r1
    10e8:	41 f4       	brne	.+16     	; 0x10fa <malloc+0xea>
    10ea:	2d b7       	in	r18, 0x3d	; 61
    10ec:	3e b7       	in	r19, 0x3e	; 62
    10ee:	40 91 04 01 	lds	r20, 0x0104	; 0x800104 <__malloc_margin>
    10f2:	50 91 05 01 	lds	r21, 0x0105	; 0x800105 <__malloc_margin+0x1>
    10f6:	24 1b       	sub	r18, r20
    10f8:	35 0b       	sbc	r19, r21
    10fa:	e0 91 24 02 	lds	r30, 0x0224	; 0x800224 <__data_end>
    10fe:	f0 91 25 02 	lds	r31, 0x0225	; 0x800225 <__data_end+0x1>
    1102:	e2 17       	cp	r30, r18
    1104:	f3 07       	cpc	r31, r19
    1106:	a0 f4       	brcc	.+40     	; 0x1130 <malloc+0x120>
    1108:	2e 1b       	sub	r18, r30
    110a:	3f 0b       	sbc	r19, r31
    110c:	28 17       	cp	r18, r24
    110e:	39 07       	cpc	r19, r25
    1110:	78 f0       	brcs	.+30     	; 0x1130 <malloc+0x120>
    1112:	ac 01       	movw	r20, r24
    1114:	4e 5f       	subi	r20, 0xFE	; 254
    1116:	5f 4f       	sbci	r21, 0xFF	; 255
    1118:	24 17       	cp	r18, r20
    111a:	35 07       	cpc	r19, r21
    111c:	48 f0       	brcs	.+18     	; 0x1130 <malloc+0x120>
    111e:	4e 0f       	add	r20, r30
    1120:	5f 1f       	adc	r21, r31
    1122:	50 93 25 02 	sts	0x0225, r21	; 0x800225 <__data_end+0x1>
    1126:	40 93 24 02 	sts	0x0224, r20	; 0x800224 <__data_end>
    112a:	81 93       	st	Z+, r24
    112c:	91 93       	st	Z+, r25
    112e:	02 c0       	rjmp	.+4      	; 0x1134 <malloc+0x124>
    1130:	e0 e0       	ldi	r30, 0x00	; 0
    1132:	f0 e0       	ldi	r31, 0x00	; 0
    1134:	cf 01       	movw	r24, r30
    1136:	df 91       	pop	r29
    1138:	cf 91       	pop	r28
    113a:	1f 91       	pop	r17
    113c:	0f 91       	pop	r16
    113e:	08 95       	ret

00001140 <free>:
    1140:	cf 93       	push	r28
    1142:	df 93       	push	r29
    1144:	00 97       	sbiw	r24, 0x00	; 0
    1146:	09 f4       	brne	.+2      	; 0x114a <free+0xa>
    1148:	81 c0       	rjmp	.+258    	; 0x124c <free+0x10c>
    114a:	fc 01       	movw	r30, r24
    114c:	32 97       	sbiw	r30, 0x02	; 2
    114e:	13 82       	std	Z+3, r1	; 0x03
    1150:	12 82       	std	Z+2, r1	; 0x02
    1152:	a0 91 26 02 	lds	r26, 0x0226	; 0x800226 <__flp>
    1156:	b0 91 27 02 	lds	r27, 0x0227	; 0x800227 <__flp+0x1>
    115a:	10 97       	sbiw	r26, 0x00	; 0
    115c:	81 f4       	brne	.+32     	; 0x117e <free+0x3e>
    115e:	20 81       	ld	r18, Z
    1160:	31 81       	ldd	r19, Z+1	; 0x01
    1162:	82 0f       	add	r24, r18
    1164:	93 1f       	adc	r25, r19
    1166:	20 91 24 02 	lds	r18, 0x0224	; 0x800224 <__data_end>
    116a:	30 91 25 02 	lds	r19, 0x0225	; 0x800225 <__data_end+0x1>
    116e:	28 17       	cp	r18, r24
    1170:	39 07       	cpc	r19, r25
    1172:	51 f5       	brne	.+84     	; 0x11c8 <free+0x88>
    1174:	f0 93 25 02 	sts	0x0225, r31	; 0x800225 <__data_end+0x1>
    1178:	e0 93 24 02 	sts	0x0224, r30	; 0x800224 <__data_end>
    117c:	67 c0       	rjmp	.+206    	; 0x124c <free+0x10c>
    117e:	ed 01       	movw	r28, r26
    1180:	20 e0       	ldi	r18, 0x00	; 0
    1182:	30 e0       	ldi	r19, 0x00	; 0
    1184:	ce 17       	cp	r28, r30
    1186:	df 07       	cpc	r29, r31
    1188:	40 f4       	brcc	.+16     	; 0x119a <free+0x5a>
    118a:	4a 81       	ldd	r20, Y+2	; 0x02
    118c:	5b 81       	ldd	r21, Y+3	; 0x03
    118e:	9e 01       	movw	r18, r28
    1190:	41 15       	cp	r20, r1
    1192:	51 05       	cpc	r21, r1
    1194:	f1 f0       	breq	.+60     	; 0x11d2 <free+0x92>
    1196:	ea 01       	movw	r28, r20
    1198:	f5 cf       	rjmp	.-22     	; 0x1184 <free+0x44>
    119a:	d3 83       	std	Z+3, r29	; 0x03
    119c:	c2 83       	std	Z+2, r28	; 0x02
    119e:	40 81       	ld	r20, Z
    11a0:	51 81       	ldd	r21, Z+1	; 0x01
    11a2:	84 0f       	add	r24, r20
    11a4:	95 1f       	adc	r25, r21
    11a6:	c8 17       	cp	r28, r24
    11a8:	d9 07       	cpc	r29, r25
    11aa:	59 f4       	brne	.+22     	; 0x11c2 <free+0x82>
    11ac:	88 81       	ld	r24, Y
    11ae:	99 81       	ldd	r25, Y+1	; 0x01
    11b0:	84 0f       	add	r24, r20
    11b2:	95 1f       	adc	r25, r21
    11b4:	02 96       	adiw	r24, 0x02	; 2
    11b6:	91 83       	std	Z+1, r25	; 0x01
    11b8:	80 83       	st	Z, r24
    11ba:	8a 81       	ldd	r24, Y+2	; 0x02
    11bc:	9b 81       	ldd	r25, Y+3	; 0x03
    11be:	93 83       	std	Z+3, r25	; 0x03
    11c0:	82 83       	std	Z+2, r24	; 0x02
    11c2:	21 15       	cp	r18, r1
    11c4:	31 05       	cpc	r19, r1
    11c6:	29 f4       	brne	.+10     	; 0x11d2 <free+0x92>
    11c8:	f0 93 27 02 	sts	0x0227, r31	; 0x800227 <__flp+0x1>
    11cc:	e0 93 26 02 	sts	0x0226, r30	; 0x800226 <__flp>
    11d0:	3d c0       	rjmp	.+122    	; 0x124c <free+0x10c>
    11d2:	e9 01       	movw	r28, r18
    11d4:	fb 83       	std	Y+3, r31	; 0x03
    11d6:	ea 83       	std	Y+2, r30	; 0x02
    11d8:	49 91       	ld	r20, Y+
    11da:	59 91       	ld	r21, Y+
    11dc:	c4 0f       	add	r28, r20
    11de:	d5 1f       	adc	r29, r21
    11e0:	ec 17       	cp	r30, r28
    11e2:	fd 07       	cpc	r31, r29
    11e4:	61 f4       	brne	.+24     	; 0x11fe <free+0xbe>
    11e6:	80 81       	ld	r24, Z
    11e8:	91 81       	ldd	r25, Z+1	; 0x01
    11ea:	84 0f       	add	r24, r20
    11ec:	95 1f       	adc	r25, r21
    11ee:	02 96       	adiw	r24, 0x02	; 2
    11f0:	e9 01       	movw	r28, r18
    11f2:	99 83       	std	Y+1, r25	; 0x01
    11f4:	88 83       	st	Y, r24
    11f6:	82 81       	ldd	r24, Z+2	; 0x02
    11f8:	93 81       	ldd	r25, Z+3	; 0x03
    11fa:	9b 83       	std	Y+3, r25	; 0x03
    11fc:	8a 83       	std	Y+2, r24	; 0x02
    11fe:	e0 e0       	ldi	r30, 0x00	; 0
    1200:	f0 e0       	ldi	r31, 0x00	; 0
    1202:	12 96       	adiw	r26, 0x02	; 2
    1204:	8d 91       	ld	r24, X+
    1206:	9c 91       	ld	r25, X
    1208:	13 97       	sbiw	r26, 0x03	; 3
    120a:	00 97       	sbiw	r24, 0x00	; 0
    120c:	19 f0       	breq	.+6      	; 0x1214 <free+0xd4>
    120e:	fd 01       	movw	r30, r26
    1210:	dc 01       	movw	r26, r24
    1212:	f7 cf       	rjmp	.-18     	; 0x1202 <free+0xc2>
    1214:	8d 91       	ld	r24, X+
    1216:	9c 91       	ld	r25, X
    1218:	11 97       	sbiw	r26, 0x01	; 1
    121a:	9d 01       	movw	r18, r26
    121c:	2e 5f       	subi	r18, 0xFE	; 254
    121e:	3f 4f       	sbci	r19, 0xFF	; 255
    1220:	82 0f       	add	r24, r18
    1222:	93 1f       	adc	r25, r19
    1224:	20 91 24 02 	lds	r18, 0x0224	; 0x800224 <__data_end>
    1228:	30 91 25 02 	lds	r19, 0x0225	; 0x800225 <__data_end+0x1>
    122c:	28 17       	cp	r18, r24
    122e:	39 07       	cpc	r19, r25
    1230:	69 f4       	brne	.+26     	; 0x124c <free+0x10c>
    1232:	30 97       	sbiw	r30, 0x00	; 0
    1234:	29 f4       	brne	.+10     	; 0x1240 <free+0x100>
    1236:	10 92 27 02 	sts	0x0227, r1	; 0x800227 <__flp+0x1>
    123a:	10 92 26 02 	sts	0x0226, r1	; 0x800226 <__flp>
    123e:	02 c0       	rjmp	.+4      	; 0x1244 <free+0x104>
    1240:	13 82       	std	Z+3, r1	; 0x03
    1242:	12 82       	std	Z+2, r1	; 0x02
    1244:	b0 93 25 02 	sts	0x0225, r27	; 0x800225 <__data_end+0x1>
    1248:	a0 93 24 02 	sts	0x0224, r26	; 0x800224 <__data_end>
    124c:	df 91       	pop	r29
    124e:	cf 91       	pop	r28
    1250:	08 95       	ret

00001252 <strdup>:
    1252:	0f 93       	push	r16
    1254:	1f 93       	push	r17
    1256:	cf 93       	push	r28
    1258:	df 93       	push	r29
    125a:	8c 01       	movw	r16, r24
    125c:	fc 01       	movw	r30, r24
    125e:	01 90       	ld	r0, Z+
    1260:	00 20       	and	r0, r0
    1262:	e9 f7       	brne	.-6      	; 0x125e <strdup+0xc>
    1264:	cf 01       	movw	r24, r30
    1266:	80 1b       	sub	r24, r16
    1268:	91 0b       	sbc	r25, r17
    126a:	0e 94 08 08 	call	0x1010	; 0x1010 <malloc>
    126e:	ec 01       	movw	r28, r24
    1270:	00 97       	sbiw	r24, 0x00	; 0
    1272:	19 f0       	breq	.+6      	; 0x127a <strdup+0x28>
    1274:	b8 01       	movw	r22, r16
    1276:	0e 94 4c 09 	call	0x1298	; 0x1298 <strcpy>
    127a:	ce 01       	movw	r24, r28
    127c:	df 91       	pop	r29
    127e:	cf 91       	pop	r28
    1280:	1f 91       	pop	r17
    1282:	0f 91       	pop	r16
    1284:	08 95       	ret

00001286 <strcmp>:
    1286:	fb 01       	movw	r30, r22
    1288:	dc 01       	movw	r26, r24
    128a:	8d 91       	ld	r24, X+
    128c:	01 90       	ld	r0, Z+
    128e:	80 19       	sub	r24, r0
    1290:	01 10       	cpse	r0, r1
    1292:	d9 f3       	breq	.-10     	; 0x128a <strcmp+0x4>
    1294:	99 0b       	sbc	r25, r25
    1296:	08 95       	ret

00001298 <strcpy>:
    1298:	fb 01       	movw	r30, r22
    129a:	dc 01       	movw	r26, r24
    129c:	01 90       	ld	r0, Z+
    129e:	0d 92       	st	X+, r0
    12a0:	00 20       	and	r0, r0
    12a2:	e1 f7       	brne	.-8      	; 0x129c <strcpy+0x4>
    12a4:	08 95       	ret

000012a6 <printf>:
    12a6:	a0 e0       	ldi	r26, 0x00	; 0
    12a8:	b0 e0       	ldi	r27, 0x00	; 0
    12aa:	e9 e5       	ldi	r30, 0x59	; 89
    12ac:	f9 e0       	ldi	r31, 0x09	; 9
    12ae:	0c 94 11 0c 	jmp	0x1822	; 0x1822 <__prologue_saves__+0x20>
    12b2:	ae 01       	movw	r20, r28
    12b4:	4b 5f       	subi	r20, 0xFB	; 251
    12b6:	5f 4f       	sbci	r21, 0xFF	; 255
    12b8:	fa 01       	movw	r30, r20
    12ba:	61 91       	ld	r22, Z+
    12bc:	71 91       	ld	r23, Z+
    12be:	af 01       	movw	r20, r30
    12c0:	80 91 2a 02 	lds	r24, 0x022A	; 0x80022a <__iob+0x2>
    12c4:	90 91 2b 02 	lds	r25, 0x022B	; 0x80022b <__iob+0x3>
    12c8:	0e 94 70 09 	call	0x12e0	; 0x12e0 <vfprintf>
    12cc:	e2 e0       	ldi	r30, 0x02	; 2
    12ce:	0c 94 2d 0c 	jmp	0x185a	; 0x185a <__epilogue_restores__+0x20>

000012d2 <putchar>:
    12d2:	60 91 2a 02 	lds	r22, 0x022A	; 0x80022a <__iob+0x2>
    12d6:	70 91 2b 02 	lds	r23, 0x022B	; 0x80022b <__iob+0x3>
    12da:	0e 94 67 0b 	call	0x16ce	; 0x16ce <fputc>
    12de:	08 95       	ret

000012e0 <vfprintf>:
    12e0:	ab e0       	ldi	r26, 0x0B	; 11
    12e2:	b0 e0       	ldi	r27, 0x00	; 0
    12e4:	e6 e7       	ldi	r30, 0x76	; 118
    12e6:	f9 e0       	ldi	r31, 0x09	; 9
    12e8:	0c 94 01 0c 	jmp	0x1802	; 0x1802 <__prologue_saves__>
    12ec:	6c 01       	movw	r12, r24
    12ee:	7b 01       	movw	r14, r22
    12f0:	8a 01       	movw	r16, r20
    12f2:	fc 01       	movw	r30, r24
    12f4:	17 82       	std	Z+7, r1	; 0x07
    12f6:	16 82       	std	Z+6, r1	; 0x06
    12f8:	83 81       	ldd	r24, Z+3	; 0x03
    12fa:	81 ff       	sbrs	r24, 1
    12fc:	cc c1       	rjmp	.+920    	; 0x1696 <vfprintf+0x3b6>
    12fe:	ce 01       	movw	r24, r28
    1300:	01 96       	adiw	r24, 0x01	; 1
    1302:	3c 01       	movw	r6, r24
    1304:	f6 01       	movw	r30, r12
    1306:	93 81       	ldd	r25, Z+3	; 0x03
    1308:	f7 01       	movw	r30, r14
    130a:	93 fd       	sbrc	r25, 3
    130c:	85 91       	lpm	r24, Z+
    130e:	93 ff       	sbrs	r25, 3
    1310:	81 91       	ld	r24, Z+
    1312:	7f 01       	movw	r14, r30
    1314:	88 23       	and	r24, r24
    1316:	09 f4       	brne	.+2      	; 0x131a <vfprintf+0x3a>
    1318:	ba c1       	rjmp	.+884    	; 0x168e <vfprintf+0x3ae>
    131a:	85 32       	cpi	r24, 0x25	; 37
    131c:	39 f4       	brne	.+14     	; 0x132c <vfprintf+0x4c>
    131e:	93 fd       	sbrc	r25, 3
    1320:	85 91       	lpm	r24, Z+
    1322:	93 ff       	sbrs	r25, 3
    1324:	81 91       	ld	r24, Z+
    1326:	7f 01       	movw	r14, r30
    1328:	85 32       	cpi	r24, 0x25	; 37
    132a:	29 f4       	brne	.+10     	; 0x1336 <vfprintf+0x56>
    132c:	b6 01       	movw	r22, r12
    132e:	90 e0       	ldi	r25, 0x00	; 0
    1330:	0e 94 67 0b 	call	0x16ce	; 0x16ce <fputc>
    1334:	e7 cf       	rjmp	.-50     	; 0x1304 <vfprintf+0x24>
    1336:	91 2c       	mov	r9, r1
    1338:	21 2c       	mov	r2, r1
    133a:	31 2c       	mov	r3, r1
    133c:	ff e1       	ldi	r31, 0x1F	; 31
    133e:	f3 15       	cp	r31, r3
    1340:	d8 f0       	brcs	.+54     	; 0x1378 <vfprintf+0x98>
    1342:	8b 32       	cpi	r24, 0x2B	; 43
    1344:	79 f0       	breq	.+30     	; 0x1364 <vfprintf+0x84>
    1346:	38 f4       	brcc	.+14     	; 0x1356 <vfprintf+0x76>
    1348:	80 32       	cpi	r24, 0x20	; 32
    134a:	79 f0       	breq	.+30     	; 0x136a <vfprintf+0x8a>
    134c:	83 32       	cpi	r24, 0x23	; 35
    134e:	a1 f4       	brne	.+40     	; 0x1378 <vfprintf+0x98>
    1350:	23 2d       	mov	r18, r3
    1352:	20 61       	ori	r18, 0x10	; 16
    1354:	1d c0       	rjmp	.+58     	; 0x1390 <vfprintf+0xb0>
    1356:	8d 32       	cpi	r24, 0x2D	; 45
    1358:	61 f0       	breq	.+24     	; 0x1372 <vfprintf+0x92>
    135a:	80 33       	cpi	r24, 0x30	; 48
    135c:	69 f4       	brne	.+26     	; 0x1378 <vfprintf+0x98>
    135e:	23 2d       	mov	r18, r3
    1360:	21 60       	ori	r18, 0x01	; 1
    1362:	16 c0       	rjmp	.+44     	; 0x1390 <vfprintf+0xb0>
    1364:	83 2d       	mov	r24, r3
    1366:	82 60       	ori	r24, 0x02	; 2
    1368:	38 2e       	mov	r3, r24
    136a:	e3 2d       	mov	r30, r3
    136c:	e4 60       	ori	r30, 0x04	; 4
    136e:	3e 2e       	mov	r3, r30
    1370:	2a c0       	rjmp	.+84     	; 0x13c6 <vfprintf+0xe6>
    1372:	f3 2d       	mov	r31, r3
    1374:	f8 60       	ori	r31, 0x08	; 8
    1376:	1d c0       	rjmp	.+58     	; 0x13b2 <vfprintf+0xd2>
    1378:	37 fc       	sbrc	r3, 7
    137a:	2d c0       	rjmp	.+90     	; 0x13d6 <vfprintf+0xf6>
    137c:	20 ed       	ldi	r18, 0xD0	; 208
    137e:	28 0f       	add	r18, r24
    1380:	2a 30       	cpi	r18, 0x0A	; 10
    1382:	40 f0       	brcs	.+16     	; 0x1394 <vfprintf+0xb4>
    1384:	8e 32       	cpi	r24, 0x2E	; 46
    1386:	b9 f4       	brne	.+46     	; 0x13b6 <vfprintf+0xd6>
    1388:	36 fc       	sbrc	r3, 6
    138a:	81 c1       	rjmp	.+770    	; 0x168e <vfprintf+0x3ae>
    138c:	23 2d       	mov	r18, r3
    138e:	20 64       	ori	r18, 0x40	; 64
    1390:	32 2e       	mov	r3, r18
    1392:	19 c0       	rjmp	.+50     	; 0x13c6 <vfprintf+0xe6>
    1394:	36 fe       	sbrs	r3, 6
    1396:	06 c0       	rjmp	.+12     	; 0x13a4 <vfprintf+0xc4>
    1398:	8a e0       	ldi	r24, 0x0A	; 10
    139a:	98 9e       	mul	r9, r24
    139c:	20 0d       	add	r18, r0
    139e:	11 24       	eor	r1, r1
    13a0:	92 2e       	mov	r9, r18
    13a2:	11 c0       	rjmp	.+34     	; 0x13c6 <vfprintf+0xe6>
    13a4:	ea e0       	ldi	r30, 0x0A	; 10
    13a6:	2e 9e       	mul	r2, r30
    13a8:	20 0d       	add	r18, r0
    13aa:	11 24       	eor	r1, r1
    13ac:	22 2e       	mov	r2, r18
    13ae:	f3 2d       	mov	r31, r3
    13b0:	f0 62       	ori	r31, 0x20	; 32
    13b2:	3f 2e       	mov	r3, r31
    13b4:	08 c0       	rjmp	.+16     	; 0x13c6 <vfprintf+0xe6>
    13b6:	8c 36       	cpi	r24, 0x6C	; 108
    13b8:	21 f4       	brne	.+8      	; 0x13c2 <vfprintf+0xe2>
    13ba:	83 2d       	mov	r24, r3
    13bc:	80 68       	ori	r24, 0x80	; 128
    13be:	38 2e       	mov	r3, r24
    13c0:	02 c0       	rjmp	.+4      	; 0x13c6 <vfprintf+0xe6>
    13c2:	88 36       	cpi	r24, 0x68	; 104
    13c4:	41 f4       	brne	.+16     	; 0x13d6 <vfprintf+0xf6>
    13c6:	f7 01       	movw	r30, r14
    13c8:	93 fd       	sbrc	r25, 3
    13ca:	85 91       	lpm	r24, Z+
    13cc:	93 ff       	sbrs	r25, 3
    13ce:	81 91       	ld	r24, Z+
    13d0:	7f 01       	movw	r14, r30
    13d2:	81 11       	cpse	r24, r1
    13d4:	b3 cf       	rjmp	.-154    	; 0x133c <vfprintf+0x5c>
    13d6:	98 2f       	mov	r25, r24
    13d8:	9f 7d       	andi	r25, 0xDF	; 223
    13da:	95 54       	subi	r25, 0x45	; 69
    13dc:	93 30       	cpi	r25, 0x03	; 3
    13de:	28 f4       	brcc	.+10     	; 0x13ea <vfprintf+0x10a>
    13e0:	0c 5f       	subi	r16, 0xFC	; 252
    13e2:	1f 4f       	sbci	r17, 0xFF	; 255
    13e4:	9f e3       	ldi	r25, 0x3F	; 63
    13e6:	99 83       	std	Y+1, r25	; 0x01
    13e8:	0d c0       	rjmp	.+26     	; 0x1404 <vfprintf+0x124>
    13ea:	83 36       	cpi	r24, 0x63	; 99
    13ec:	31 f0       	breq	.+12     	; 0x13fa <vfprintf+0x11a>
    13ee:	83 37       	cpi	r24, 0x73	; 115
    13f0:	71 f0       	breq	.+28     	; 0x140e <vfprintf+0x12e>
    13f2:	83 35       	cpi	r24, 0x53	; 83
    13f4:	09 f0       	breq	.+2      	; 0x13f8 <vfprintf+0x118>
    13f6:	59 c0       	rjmp	.+178    	; 0x14aa <vfprintf+0x1ca>
    13f8:	21 c0       	rjmp	.+66     	; 0x143c <vfprintf+0x15c>
    13fa:	f8 01       	movw	r30, r16
    13fc:	80 81       	ld	r24, Z
    13fe:	89 83       	std	Y+1, r24	; 0x01
    1400:	0e 5f       	subi	r16, 0xFE	; 254
    1402:	1f 4f       	sbci	r17, 0xFF	; 255
    1404:	88 24       	eor	r8, r8
    1406:	83 94       	inc	r8
    1408:	91 2c       	mov	r9, r1
    140a:	53 01       	movw	r10, r6
    140c:	13 c0       	rjmp	.+38     	; 0x1434 <vfprintf+0x154>
    140e:	28 01       	movw	r4, r16
    1410:	f2 e0       	ldi	r31, 0x02	; 2
    1412:	4f 0e       	add	r4, r31
    1414:	51 1c       	adc	r5, r1
    1416:	f8 01       	movw	r30, r16
    1418:	a0 80       	ld	r10, Z
    141a:	b1 80       	ldd	r11, Z+1	; 0x01
    141c:	36 fe       	sbrs	r3, 6
    141e:	03 c0       	rjmp	.+6      	; 0x1426 <vfprintf+0x146>
    1420:	69 2d       	mov	r22, r9
    1422:	70 e0       	ldi	r23, 0x00	; 0
    1424:	02 c0       	rjmp	.+4      	; 0x142a <vfprintf+0x14a>
    1426:	6f ef       	ldi	r22, 0xFF	; 255
    1428:	7f ef       	ldi	r23, 0xFF	; 255
    142a:	c5 01       	movw	r24, r10
    142c:	0e 94 5c 0b 	call	0x16b8	; 0x16b8 <strnlen>
    1430:	4c 01       	movw	r8, r24
    1432:	82 01       	movw	r16, r4
    1434:	f3 2d       	mov	r31, r3
    1436:	ff 77       	andi	r31, 0x7F	; 127
    1438:	3f 2e       	mov	r3, r31
    143a:	16 c0       	rjmp	.+44     	; 0x1468 <vfprintf+0x188>
    143c:	28 01       	movw	r4, r16
    143e:	22 e0       	ldi	r18, 0x02	; 2
    1440:	42 0e       	add	r4, r18
    1442:	51 1c       	adc	r5, r1
    1444:	f8 01       	movw	r30, r16
    1446:	a0 80       	ld	r10, Z
    1448:	b1 80       	ldd	r11, Z+1	; 0x01
    144a:	36 fe       	sbrs	r3, 6
    144c:	03 c0       	rjmp	.+6      	; 0x1454 <vfprintf+0x174>
    144e:	69 2d       	mov	r22, r9
    1450:	70 e0       	ldi	r23, 0x00	; 0
    1452:	02 c0       	rjmp	.+4      	; 0x1458 <vfprintf+0x178>
    1454:	6f ef       	ldi	r22, 0xFF	; 255
    1456:	7f ef       	ldi	r23, 0xFF	; 255
    1458:	c5 01       	movw	r24, r10
    145a:	0e 94 51 0b 	call	0x16a2	; 0x16a2 <strnlen_P>
    145e:	4c 01       	movw	r8, r24
    1460:	f3 2d       	mov	r31, r3
    1462:	f0 68       	ori	r31, 0x80	; 128
    1464:	3f 2e       	mov	r3, r31
    1466:	82 01       	movw	r16, r4
    1468:	33 fc       	sbrc	r3, 3
    146a:	1b c0       	rjmp	.+54     	; 0x14a2 <vfprintf+0x1c2>
    146c:	82 2d       	mov	r24, r2
    146e:	90 e0       	ldi	r25, 0x00	; 0
    1470:	88 16       	cp	r8, r24
    1472:	99 06       	cpc	r9, r25
    1474:	b0 f4       	brcc	.+44     	; 0x14a2 <vfprintf+0x1c2>
    1476:	b6 01       	movw	r22, r12
    1478:	80 e2       	ldi	r24, 0x20	; 32
    147a:	90 e0       	ldi	r25, 0x00	; 0
    147c:	0e 94 67 0b 	call	0x16ce	; 0x16ce <fputc>
    1480:	2a 94       	dec	r2
    1482:	f4 cf       	rjmp	.-24     	; 0x146c <vfprintf+0x18c>
    1484:	f5 01       	movw	r30, r10
    1486:	37 fc       	sbrc	r3, 7
    1488:	85 91       	lpm	r24, Z+
    148a:	37 fe       	sbrs	r3, 7
    148c:	81 91       	ld	r24, Z+
    148e:	5f 01       	movw	r10, r30
    1490:	b6 01       	movw	r22, r12
    1492:	90 e0       	ldi	r25, 0x00	; 0
    1494:	0e 94 67 0b 	call	0x16ce	; 0x16ce <fputc>
    1498:	21 10       	cpse	r2, r1
    149a:	2a 94       	dec	r2
    149c:	21 e0       	ldi	r18, 0x01	; 1
    149e:	82 1a       	sub	r8, r18
    14a0:	91 08       	sbc	r9, r1
    14a2:	81 14       	cp	r8, r1
    14a4:	91 04       	cpc	r9, r1
    14a6:	71 f7       	brne	.-36     	; 0x1484 <vfprintf+0x1a4>
    14a8:	e8 c0       	rjmp	.+464    	; 0x167a <vfprintf+0x39a>
    14aa:	84 36       	cpi	r24, 0x64	; 100
    14ac:	11 f0       	breq	.+4      	; 0x14b2 <vfprintf+0x1d2>
    14ae:	89 36       	cpi	r24, 0x69	; 105
    14b0:	41 f5       	brne	.+80     	; 0x1502 <vfprintf+0x222>
    14b2:	f8 01       	movw	r30, r16
    14b4:	37 fe       	sbrs	r3, 7
    14b6:	07 c0       	rjmp	.+14     	; 0x14c6 <vfprintf+0x1e6>
    14b8:	60 81       	ld	r22, Z
    14ba:	71 81       	ldd	r23, Z+1	; 0x01
    14bc:	82 81       	ldd	r24, Z+2	; 0x02
    14be:	93 81       	ldd	r25, Z+3	; 0x03
    14c0:	0c 5f       	subi	r16, 0xFC	; 252
    14c2:	1f 4f       	sbci	r17, 0xFF	; 255
    14c4:	08 c0       	rjmp	.+16     	; 0x14d6 <vfprintf+0x1f6>
    14c6:	60 81       	ld	r22, Z
    14c8:	71 81       	ldd	r23, Z+1	; 0x01
    14ca:	07 2e       	mov	r0, r23
    14cc:	00 0c       	add	r0, r0
    14ce:	88 0b       	sbc	r24, r24
    14d0:	99 0b       	sbc	r25, r25
    14d2:	0e 5f       	subi	r16, 0xFE	; 254
    14d4:	1f 4f       	sbci	r17, 0xFF	; 255
    14d6:	f3 2d       	mov	r31, r3
    14d8:	ff 76       	andi	r31, 0x6F	; 111
    14da:	3f 2e       	mov	r3, r31
    14dc:	97 ff       	sbrs	r25, 7
    14de:	09 c0       	rjmp	.+18     	; 0x14f2 <vfprintf+0x212>
    14e0:	90 95       	com	r25
    14e2:	80 95       	com	r24
    14e4:	70 95       	com	r23
    14e6:	61 95       	neg	r22
    14e8:	7f 4f       	sbci	r23, 0xFF	; 255
    14ea:	8f 4f       	sbci	r24, 0xFF	; 255
    14ec:	9f 4f       	sbci	r25, 0xFF	; 255
    14ee:	f0 68       	ori	r31, 0x80	; 128
    14f0:	3f 2e       	mov	r3, r31
    14f2:	2a e0       	ldi	r18, 0x0A	; 10
    14f4:	30 e0       	ldi	r19, 0x00	; 0
    14f6:	a3 01       	movw	r20, r6
    14f8:	0e 94 a3 0b 	call	0x1746	; 0x1746 <__ultoa_invert>
    14fc:	88 2e       	mov	r8, r24
    14fe:	86 18       	sub	r8, r6
    1500:	45 c0       	rjmp	.+138    	; 0x158c <vfprintf+0x2ac>
    1502:	85 37       	cpi	r24, 0x75	; 117
    1504:	31 f4       	brne	.+12     	; 0x1512 <vfprintf+0x232>
    1506:	23 2d       	mov	r18, r3
    1508:	2f 7e       	andi	r18, 0xEF	; 239
    150a:	b2 2e       	mov	r11, r18
    150c:	2a e0       	ldi	r18, 0x0A	; 10
    150e:	30 e0       	ldi	r19, 0x00	; 0
    1510:	25 c0       	rjmp	.+74     	; 0x155c <vfprintf+0x27c>
    1512:	93 2d       	mov	r25, r3
    1514:	99 7f       	andi	r25, 0xF9	; 249
    1516:	b9 2e       	mov	r11, r25
    1518:	8f 36       	cpi	r24, 0x6F	; 111
    151a:	c1 f0       	breq	.+48     	; 0x154c <vfprintf+0x26c>
    151c:	18 f4       	brcc	.+6      	; 0x1524 <vfprintf+0x244>
    151e:	88 35       	cpi	r24, 0x58	; 88
    1520:	79 f0       	breq	.+30     	; 0x1540 <vfprintf+0x260>
    1522:	b5 c0       	rjmp	.+362    	; 0x168e <vfprintf+0x3ae>
    1524:	80 37       	cpi	r24, 0x70	; 112
    1526:	19 f0       	breq	.+6      	; 0x152e <vfprintf+0x24e>
    1528:	88 37       	cpi	r24, 0x78	; 120
    152a:	21 f0       	breq	.+8      	; 0x1534 <vfprintf+0x254>
    152c:	b0 c0       	rjmp	.+352    	; 0x168e <vfprintf+0x3ae>
    152e:	e9 2f       	mov	r30, r25
    1530:	e0 61       	ori	r30, 0x10	; 16
    1532:	be 2e       	mov	r11, r30
    1534:	b4 fe       	sbrs	r11, 4
    1536:	0d c0       	rjmp	.+26     	; 0x1552 <vfprintf+0x272>
    1538:	fb 2d       	mov	r31, r11
    153a:	f4 60       	ori	r31, 0x04	; 4
    153c:	bf 2e       	mov	r11, r31
    153e:	09 c0       	rjmp	.+18     	; 0x1552 <vfprintf+0x272>
    1540:	34 fe       	sbrs	r3, 4
    1542:	0a c0       	rjmp	.+20     	; 0x1558 <vfprintf+0x278>
    1544:	29 2f       	mov	r18, r25
    1546:	26 60       	ori	r18, 0x06	; 6
    1548:	b2 2e       	mov	r11, r18
    154a:	06 c0       	rjmp	.+12     	; 0x1558 <vfprintf+0x278>
    154c:	28 e0       	ldi	r18, 0x08	; 8
    154e:	30 e0       	ldi	r19, 0x00	; 0
    1550:	05 c0       	rjmp	.+10     	; 0x155c <vfprintf+0x27c>
    1552:	20 e1       	ldi	r18, 0x10	; 16
    1554:	30 e0       	ldi	r19, 0x00	; 0
    1556:	02 c0       	rjmp	.+4      	; 0x155c <vfprintf+0x27c>
    1558:	20 e1       	ldi	r18, 0x10	; 16
    155a:	32 e0       	ldi	r19, 0x02	; 2
    155c:	f8 01       	movw	r30, r16
    155e:	b7 fe       	sbrs	r11, 7
    1560:	07 c0       	rjmp	.+14     	; 0x1570 <vfprintf+0x290>
    1562:	60 81       	ld	r22, Z
    1564:	71 81       	ldd	r23, Z+1	; 0x01
    1566:	82 81       	ldd	r24, Z+2	; 0x02
    1568:	93 81       	ldd	r25, Z+3	; 0x03
    156a:	0c 5f       	subi	r16, 0xFC	; 252
    156c:	1f 4f       	sbci	r17, 0xFF	; 255
    156e:	06 c0       	rjmp	.+12     	; 0x157c <vfprintf+0x29c>
    1570:	60 81       	ld	r22, Z
    1572:	71 81       	ldd	r23, Z+1	; 0x01
    1574:	80 e0       	ldi	r24, 0x00	; 0
    1576:	90 e0       	ldi	r25, 0x00	; 0
    1578:	0e 5f       	subi	r16, 0xFE	; 254
    157a:	1f 4f       	sbci	r17, 0xFF	; 255
    157c:	a3 01       	movw	r20, r6
    157e:	0e 94 a3 0b 	call	0x1746	; 0x1746 <__ultoa_invert>
    1582:	88 2e       	mov	r8, r24
    1584:	86 18       	sub	r8, r6
    1586:	fb 2d       	mov	r31, r11
    1588:	ff 77       	andi	r31, 0x7F	; 127
    158a:	3f 2e       	mov	r3, r31
    158c:	36 fe       	sbrs	r3, 6
    158e:	0d c0       	rjmp	.+26     	; 0x15aa <vfprintf+0x2ca>
    1590:	23 2d       	mov	r18, r3
    1592:	2e 7f       	andi	r18, 0xFE	; 254
    1594:	a2 2e       	mov	r10, r18
    1596:	89 14       	cp	r8, r9
    1598:	58 f4       	brcc	.+22     	; 0x15b0 <vfprintf+0x2d0>
    159a:	34 fe       	sbrs	r3, 4
    159c:	0b c0       	rjmp	.+22     	; 0x15b4 <vfprintf+0x2d4>
    159e:	32 fc       	sbrc	r3, 2
    15a0:	09 c0       	rjmp	.+18     	; 0x15b4 <vfprintf+0x2d4>
    15a2:	83 2d       	mov	r24, r3
    15a4:	8e 7e       	andi	r24, 0xEE	; 238
    15a6:	a8 2e       	mov	r10, r24
    15a8:	05 c0       	rjmp	.+10     	; 0x15b4 <vfprintf+0x2d4>
    15aa:	b8 2c       	mov	r11, r8
    15ac:	a3 2c       	mov	r10, r3
    15ae:	03 c0       	rjmp	.+6      	; 0x15b6 <vfprintf+0x2d6>
    15b0:	b8 2c       	mov	r11, r8
    15b2:	01 c0       	rjmp	.+2      	; 0x15b6 <vfprintf+0x2d6>
    15b4:	b9 2c       	mov	r11, r9
    15b6:	a4 fe       	sbrs	r10, 4
    15b8:	0f c0       	rjmp	.+30     	; 0x15d8 <vfprintf+0x2f8>
    15ba:	fe 01       	movw	r30, r28
    15bc:	e8 0d       	add	r30, r8
    15be:	f1 1d       	adc	r31, r1
    15c0:	80 81       	ld	r24, Z
    15c2:	80 33       	cpi	r24, 0x30	; 48
    15c4:	21 f4       	brne	.+8      	; 0x15ce <vfprintf+0x2ee>
    15c6:	9a 2d       	mov	r25, r10
    15c8:	99 7e       	andi	r25, 0xE9	; 233
    15ca:	a9 2e       	mov	r10, r25
    15cc:	09 c0       	rjmp	.+18     	; 0x15e0 <vfprintf+0x300>
    15ce:	a2 fe       	sbrs	r10, 2
    15d0:	06 c0       	rjmp	.+12     	; 0x15de <vfprintf+0x2fe>
    15d2:	b3 94       	inc	r11
    15d4:	b3 94       	inc	r11
    15d6:	04 c0       	rjmp	.+8      	; 0x15e0 <vfprintf+0x300>
    15d8:	8a 2d       	mov	r24, r10
    15da:	86 78       	andi	r24, 0x86	; 134
    15dc:	09 f0       	breq	.+2      	; 0x15e0 <vfprintf+0x300>
    15de:	b3 94       	inc	r11
    15e0:	a3 fc       	sbrc	r10, 3
    15e2:	11 c0       	rjmp	.+34     	; 0x1606 <vfprintf+0x326>
    15e4:	a0 fe       	sbrs	r10, 0
    15e6:	06 c0       	rjmp	.+12     	; 0x15f4 <vfprintf+0x314>
    15e8:	b2 14       	cp	r11, r2
    15ea:	88 f4       	brcc	.+34     	; 0x160e <vfprintf+0x32e>
    15ec:	28 0c       	add	r2, r8
    15ee:	92 2c       	mov	r9, r2
    15f0:	9b 18       	sub	r9, r11
    15f2:	0e c0       	rjmp	.+28     	; 0x1610 <vfprintf+0x330>
    15f4:	b2 14       	cp	r11, r2
    15f6:	60 f4       	brcc	.+24     	; 0x1610 <vfprintf+0x330>
    15f8:	b6 01       	movw	r22, r12
    15fa:	80 e2       	ldi	r24, 0x20	; 32
    15fc:	90 e0       	ldi	r25, 0x00	; 0
    15fe:	0e 94 67 0b 	call	0x16ce	; 0x16ce <fputc>
    1602:	b3 94       	inc	r11
    1604:	f7 cf       	rjmp	.-18     	; 0x15f4 <vfprintf+0x314>
    1606:	b2 14       	cp	r11, r2
    1608:	18 f4       	brcc	.+6      	; 0x1610 <vfprintf+0x330>
    160a:	2b 18       	sub	r2, r11
    160c:	02 c0       	rjmp	.+4      	; 0x1612 <vfprintf+0x332>
    160e:	98 2c       	mov	r9, r8
    1610:	21 2c       	mov	r2, r1
    1612:	a4 fe       	sbrs	r10, 4
    1614:	10 c0       	rjmp	.+32     	; 0x1636 <vfprintf+0x356>
    1616:	b6 01       	movw	r22, r12
    1618:	80 e3       	ldi	r24, 0x30	; 48
    161a:	90 e0       	ldi	r25, 0x00	; 0
    161c:	0e 94 67 0b 	call	0x16ce	; 0x16ce <fputc>
    1620:	a2 fe       	sbrs	r10, 2
    1622:	17 c0       	rjmp	.+46     	; 0x1652 <vfprintf+0x372>
    1624:	a1 fc       	sbrc	r10, 1
    1626:	03 c0       	rjmp	.+6      	; 0x162e <vfprintf+0x34e>
    1628:	88 e7       	ldi	r24, 0x78	; 120
    162a:	90 e0       	ldi	r25, 0x00	; 0
    162c:	02 c0       	rjmp	.+4      	; 0x1632 <vfprintf+0x352>
    162e:	88 e5       	ldi	r24, 0x58	; 88
    1630:	90 e0       	ldi	r25, 0x00	; 0
    1632:	b6 01       	movw	r22, r12
    1634:	0c c0       	rjmp	.+24     	; 0x164e <vfprintf+0x36e>
    1636:	8a 2d       	mov	r24, r10
    1638:	86 78       	andi	r24, 0x86	; 134
    163a:	59 f0       	breq	.+22     	; 0x1652 <vfprintf+0x372>
    163c:	a1 fe       	sbrs	r10, 1
    163e:	02 c0       	rjmp	.+4      	; 0x1644 <vfprintf+0x364>
    1640:	8b e2       	ldi	r24, 0x2B	; 43
    1642:	01 c0       	rjmp	.+2      	; 0x1646 <vfprintf+0x366>
    1644:	80 e2       	ldi	r24, 0x20	; 32
    1646:	a7 fc       	sbrc	r10, 7
    1648:	8d e2       	ldi	r24, 0x2D	; 45
    164a:	b6 01       	movw	r22, r12
    164c:	90 e0       	ldi	r25, 0x00	; 0
    164e:	0e 94 67 0b 	call	0x16ce	; 0x16ce <fputc>
    1652:	89 14       	cp	r8, r9
    1654:	38 f4       	brcc	.+14     	; 0x1664 <vfprintf+0x384>
    1656:	b6 01       	movw	r22, r12
    1658:	80 e3       	ldi	r24, 0x30	; 48
    165a:	90 e0       	ldi	r25, 0x00	; 0
    165c:	0e 94 67 0b 	call	0x16ce	; 0x16ce <fputc>
    1660:	9a 94       	dec	r9
    1662:	f7 cf       	rjmp	.-18     	; 0x1652 <vfprintf+0x372>
    1664:	8a 94       	dec	r8
    1666:	f3 01       	movw	r30, r6
    1668:	e8 0d       	add	r30, r8
    166a:	f1 1d       	adc	r31, r1
    166c:	80 81       	ld	r24, Z
    166e:	b6 01       	movw	r22, r12
    1670:	90 e0       	ldi	r25, 0x00	; 0
    1672:	0e 94 67 0b 	call	0x16ce	; 0x16ce <fputc>
    1676:	81 10       	cpse	r8, r1
    1678:	f5 cf       	rjmp	.-22     	; 0x1664 <vfprintf+0x384>
    167a:	22 20       	and	r2, r2
    167c:	09 f4       	brne	.+2      	; 0x1680 <vfprintf+0x3a0>
    167e:	42 ce       	rjmp	.-892    	; 0x1304 <vfprintf+0x24>
    1680:	b6 01       	movw	r22, r12
    1682:	80 e2       	ldi	r24, 0x20	; 32
    1684:	90 e0       	ldi	r25, 0x00	; 0
    1686:	0e 94 67 0b 	call	0x16ce	; 0x16ce <fputc>
    168a:	2a 94       	dec	r2
    168c:	f6 cf       	rjmp	.-20     	; 0x167a <vfprintf+0x39a>
    168e:	f6 01       	movw	r30, r12
    1690:	86 81       	ldd	r24, Z+6	; 0x06
    1692:	97 81       	ldd	r25, Z+7	; 0x07
    1694:	02 c0       	rjmp	.+4      	; 0x169a <vfprintf+0x3ba>
    1696:	8f ef       	ldi	r24, 0xFF	; 255
    1698:	9f ef       	ldi	r25, 0xFF	; 255
    169a:	2b 96       	adiw	r28, 0x0b	; 11
    169c:	e2 e1       	ldi	r30, 0x12	; 18
    169e:	0c 94 1d 0c 	jmp	0x183a	; 0x183a <__epilogue_restores__>

000016a2 <strnlen_P>:
    16a2:	fc 01       	movw	r30, r24
    16a4:	05 90       	lpm	r0, Z+
    16a6:	61 50       	subi	r22, 0x01	; 1
    16a8:	70 40       	sbci	r23, 0x00	; 0
    16aa:	01 10       	cpse	r0, r1
    16ac:	d8 f7       	brcc	.-10     	; 0x16a4 <strnlen_P+0x2>
    16ae:	80 95       	com	r24
    16b0:	90 95       	com	r25
    16b2:	8e 0f       	add	r24, r30
    16b4:	9f 1f       	adc	r25, r31
    16b6:	08 95       	ret

000016b8 <strnlen>:
    16b8:	fc 01       	movw	r30, r24
    16ba:	61 50       	subi	r22, 0x01	; 1
    16bc:	70 40       	sbci	r23, 0x00	; 0
    16be:	01 90       	ld	r0, Z+
    16c0:	01 10       	cpse	r0, r1
    16c2:	d8 f7       	brcc	.-10     	; 0x16ba <strnlen+0x2>
    16c4:	80 95       	com	r24
    16c6:	90 95       	com	r25
    16c8:	8e 0f       	add	r24, r30
    16ca:	9f 1f       	adc	r25, r31
    16cc:	08 95       	ret

000016ce <fputc>:
    16ce:	0f 93       	push	r16
    16d0:	1f 93       	push	r17
    16d2:	cf 93       	push	r28
    16d4:	df 93       	push	r29
    16d6:	fb 01       	movw	r30, r22
    16d8:	23 81       	ldd	r18, Z+3	; 0x03
    16da:	21 fd       	sbrc	r18, 1
    16dc:	03 c0       	rjmp	.+6      	; 0x16e4 <fputc+0x16>
    16de:	8f ef       	ldi	r24, 0xFF	; 255
    16e0:	9f ef       	ldi	r25, 0xFF	; 255
    16e2:	2c c0       	rjmp	.+88     	; 0x173c <fputc+0x6e>
    16e4:	22 ff       	sbrs	r18, 2
    16e6:	16 c0       	rjmp	.+44     	; 0x1714 <fputc+0x46>
    16e8:	46 81       	ldd	r20, Z+6	; 0x06
    16ea:	57 81       	ldd	r21, Z+7	; 0x07
    16ec:	24 81       	ldd	r18, Z+4	; 0x04
    16ee:	35 81       	ldd	r19, Z+5	; 0x05
    16f0:	42 17       	cp	r20, r18
    16f2:	53 07       	cpc	r21, r19
    16f4:	44 f4       	brge	.+16     	; 0x1706 <fputc+0x38>
    16f6:	a0 81       	ld	r26, Z
    16f8:	b1 81       	ldd	r27, Z+1	; 0x01
    16fa:	9d 01       	movw	r18, r26
    16fc:	2f 5f       	subi	r18, 0xFF	; 255
    16fe:	3f 4f       	sbci	r19, 0xFF	; 255
    1700:	31 83       	std	Z+1, r19	; 0x01
    1702:	20 83       	st	Z, r18
    1704:	8c 93       	st	X, r24
    1706:	26 81       	ldd	r18, Z+6	; 0x06
    1708:	37 81       	ldd	r19, Z+7	; 0x07
    170a:	2f 5f       	subi	r18, 0xFF	; 255
    170c:	3f 4f       	sbci	r19, 0xFF	; 255
    170e:	37 83       	std	Z+7, r19	; 0x07
    1710:	26 83       	std	Z+6, r18	; 0x06
    1712:	14 c0       	rjmp	.+40     	; 0x173c <fputc+0x6e>
    1714:	8b 01       	movw	r16, r22
    1716:	ec 01       	movw	r28, r24
    1718:	fb 01       	movw	r30, r22
    171a:	00 84       	ldd	r0, Z+8	; 0x08
    171c:	f1 85       	ldd	r31, Z+9	; 0x09
    171e:	e0 2d       	mov	r30, r0
    1720:	09 95       	icall
    1722:	89 2b       	or	r24, r25
    1724:	e1 f6       	brne	.-72     	; 0x16de <fputc+0x10>
    1726:	d8 01       	movw	r26, r16
    1728:	16 96       	adiw	r26, 0x06	; 6
    172a:	8d 91       	ld	r24, X+
    172c:	9c 91       	ld	r25, X
    172e:	17 97       	sbiw	r26, 0x07	; 7
    1730:	01 96       	adiw	r24, 0x01	; 1
    1732:	17 96       	adiw	r26, 0x07	; 7
    1734:	9c 93       	st	X, r25
    1736:	8e 93       	st	-X, r24
    1738:	16 97       	sbiw	r26, 0x06	; 6
    173a:	ce 01       	movw	r24, r28
    173c:	df 91       	pop	r29
    173e:	cf 91       	pop	r28
    1740:	1f 91       	pop	r17
    1742:	0f 91       	pop	r16
    1744:	08 95       	ret

00001746 <__ultoa_invert>:
    1746:	fa 01       	movw	r30, r20
    1748:	aa 27       	eor	r26, r26
    174a:	28 30       	cpi	r18, 0x08	; 8
    174c:	51 f1       	breq	.+84     	; 0x17a2 <__ultoa_invert+0x5c>
    174e:	20 31       	cpi	r18, 0x10	; 16
    1750:	81 f1       	breq	.+96     	; 0x17b2 <__ultoa_invert+0x6c>
    1752:	e8 94       	clt
    1754:	6f 93       	push	r22
    1756:	6e 7f       	andi	r22, 0xFE	; 254
    1758:	6e 5f       	subi	r22, 0xFE	; 254
    175a:	7f 4f       	sbci	r23, 0xFF	; 255
    175c:	8f 4f       	sbci	r24, 0xFF	; 255
    175e:	9f 4f       	sbci	r25, 0xFF	; 255
    1760:	af 4f       	sbci	r26, 0xFF	; 255
    1762:	b1 e0       	ldi	r27, 0x01	; 1
    1764:	3e d0       	rcall	.+124    	; 0x17e2 <__ultoa_invert+0x9c>
    1766:	b4 e0       	ldi	r27, 0x04	; 4
    1768:	3c d0       	rcall	.+120    	; 0x17e2 <__ultoa_invert+0x9c>
    176a:	67 0f       	add	r22, r23
    176c:	78 1f       	adc	r23, r24
    176e:	89 1f       	adc	r24, r25
    1770:	9a 1f       	adc	r25, r26
    1772:	a1 1d       	adc	r26, r1
    1774:	68 0f       	add	r22, r24
    1776:	79 1f       	adc	r23, r25
    1778:	8a 1f       	adc	r24, r26
    177a:	91 1d       	adc	r25, r1
    177c:	a1 1d       	adc	r26, r1
    177e:	6a 0f       	add	r22, r26
    1780:	71 1d       	adc	r23, r1
    1782:	81 1d       	adc	r24, r1
    1784:	91 1d       	adc	r25, r1
    1786:	a1 1d       	adc	r26, r1
    1788:	20 d0       	rcall	.+64     	; 0x17ca <__ultoa_invert+0x84>
    178a:	09 f4       	brne	.+2      	; 0x178e <__ultoa_invert+0x48>
    178c:	68 94       	set
    178e:	3f 91       	pop	r19
    1790:	2a e0       	ldi	r18, 0x0A	; 10
    1792:	26 9f       	mul	r18, r22
    1794:	11 24       	eor	r1, r1
    1796:	30 19       	sub	r19, r0
    1798:	30 5d       	subi	r19, 0xD0	; 208
    179a:	31 93       	st	Z+, r19
    179c:	de f6       	brtc	.-74     	; 0x1754 <__ultoa_invert+0xe>
    179e:	cf 01       	movw	r24, r30
    17a0:	08 95       	ret
    17a2:	46 2f       	mov	r20, r22
    17a4:	47 70       	andi	r20, 0x07	; 7
    17a6:	40 5d       	subi	r20, 0xD0	; 208
    17a8:	41 93       	st	Z+, r20
    17aa:	b3 e0       	ldi	r27, 0x03	; 3
    17ac:	0f d0       	rcall	.+30     	; 0x17cc <__ultoa_invert+0x86>
    17ae:	c9 f7       	brne	.-14     	; 0x17a2 <__ultoa_invert+0x5c>
    17b0:	f6 cf       	rjmp	.-20     	; 0x179e <__ultoa_invert+0x58>
    17b2:	46 2f       	mov	r20, r22
    17b4:	4f 70       	andi	r20, 0x0F	; 15
    17b6:	40 5d       	subi	r20, 0xD0	; 208
    17b8:	4a 33       	cpi	r20, 0x3A	; 58
    17ba:	18 f0       	brcs	.+6      	; 0x17c2 <__ultoa_invert+0x7c>
    17bc:	49 5d       	subi	r20, 0xD9	; 217
    17be:	31 fd       	sbrc	r19, 1
    17c0:	40 52       	subi	r20, 0x20	; 32
    17c2:	41 93       	st	Z+, r20
    17c4:	02 d0       	rcall	.+4      	; 0x17ca <__ultoa_invert+0x84>
    17c6:	a9 f7       	brne	.-22     	; 0x17b2 <__ultoa_invert+0x6c>
    17c8:	ea cf       	rjmp	.-44     	; 0x179e <__ultoa_invert+0x58>
    17ca:	b4 e0       	ldi	r27, 0x04	; 4
    17cc:	a6 95       	lsr	r26
    17ce:	97 95       	ror	r25
    17d0:	87 95       	ror	r24
    17d2:	77 95       	ror	r23
    17d4:	67 95       	ror	r22
    17d6:	ba 95       	dec	r27
    17d8:	c9 f7       	brne	.-14     	; 0x17cc <__ultoa_invert+0x86>
    17da:	00 97       	sbiw	r24, 0x00	; 0
    17dc:	61 05       	cpc	r22, r1
    17de:	71 05       	cpc	r23, r1
    17e0:	08 95       	ret
    17e2:	9b 01       	movw	r18, r22
    17e4:	ac 01       	movw	r20, r24
    17e6:	0a 2e       	mov	r0, r26
    17e8:	06 94       	lsr	r0
    17ea:	57 95       	ror	r21
    17ec:	47 95       	ror	r20
    17ee:	37 95       	ror	r19
    17f0:	27 95       	ror	r18
    17f2:	ba 95       	dec	r27
    17f4:	c9 f7       	brne	.-14     	; 0x17e8 <__ultoa_invert+0xa2>
    17f6:	62 0f       	add	r22, r18
    17f8:	73 1f       	adc	r23, r19
    17fa:	84 1f       	adc	r24, r20
    17fc:	95 1f       	adc	r25, r21
    17fe:	a0 1d       	adc	r26, r0
    1800:	08 95       	ret

00001802 <__prologue_saves__>:
    1802:	2f 92       	push	r2
    1804:	3f 92       	push	r3
    1806:	4f 92       	push	r4
    1808:	5f 92       	push	r5
    180a:	6f 92       	push	r6
    180c:	7f 92       	push	r7
    180e:	8f 92       	push	r8
    1810:	9f 92       	push	r9
    1812:	af 92       	push	r10
    1814:	bf 92       	push	r11
    1816:	cf 92       	push	r12
    1818:	df 92       	push	r13
    181a:	ef 92       	push	r14
    181c:	ff 92       	push	r15
    181e:	0f 93       	push	r16
    1820:	1f 93       	push	r17
    1822:	cf 93       	push	r28
    1824:	df 93       	push	r29
    1826:	cd b7       	in	r28, 0x3d	; 61
    1828:	de b7       	in	r29, 0x3e	; 62
    182a:	ca 1b       	sub	r28, r26
    182c:	db 0b       	sbc	r29, r27
    182e:	0f b6       	in	r0, 0x3f	; 63
    1830:	f8 94       	cli
    1832:	de bf       	out	0x3e, r29	; 62
    1834:	0f be       	out	0x3f, r0	; 63
    1836:	cd bf       	out	0x3d, r28	; 61
    1838:	09 94       	ijmp

0000183a <__epilogue_restores__>:
    183a:	2a 88       	ldd	r2, Y+18	; 0x12
    183c:	39 88       	ldd	r3, Y+17	; 0x11
    183e:	48 88       	ldd	r4, Y+16	; 0x10
    1840:	5f 84       	ldd	r5, Y+15	; 0x0f
    1842:	6e 84       	ldd	r6, Y+14	; 0x0e
    1844:	7d 84       	ldd	r7, Y+13	; 0x0d
    1846:	8c 84       	ldd	r8, Y+12	; 0x0c
    1848:	9b 84       	ldd	r9, Y+11	; 0x0b
    184a:	aa 84       	ldd	r10, Y+10	; 0x0a
    184c:	b9 84       	ldd	r11, Y+9	; 0x09
    184e:	c8 84       	ldd	r12, Y+8	; 0x08
    1850:	df 80       	ldd	r13, Y+7	; 0x07
    1852:	ee 80       	ldd	r14, Y+6	; 0x06
    1854:	fd 80       	ldd	r15, Y+5	; 0x05
    1856:	0c 81       	ldd	r16, Y+4	; 0x04
    1858:	1b 81       	ldd	r17, Y+3	; 0x03
    185a:	aa 81       	ldd	r26, Y+2	; 0x02
    185c:	b9 81       	ldd	r27, Y+1	; 0x01
    185e:	ce 0f       	add	r28, r30
    1860:	d1 1d       	adc	r29, r1
    1862:	0f b6       	in	r0, 0x3f	; 63
    1864:	f8 94       	cli
    1866:	de bf       	out	0x3e, r29	; 62
    1868:	0f be       	out	0x3f, r0	; 63
    186a:	cd bf       	out	0x3d, r28	; 61
    186c:	ed 01       	movw	r28, r26
    186e:	08 95       	ret

00001870 <_exit>:
    1870:	f8 94       	cli

00001872 <__stop_program>:
    1872:	ff cf       	rjmp	.-2      	; 0x1872 <__stop_program>
